C:/Users/Hannu/AppData/Local/Temp/zcc000032F8629F2.asm:
     1                          MODULE test_c
     2                          LINE 0, "src/test.c"
src/test.c:
                                
     1                          ;--------------------------------------------------------
     2                          ; File Created by SDCC : free open source ISO C Compiler
     3                          ; Version 4.4.0 #14648 (MINGW64)
     4                          ;--------------------------------------------------------
     5                          	.zxn
     6                          ; Processed by Z88DK
     7                          ;--------------------------------------------------------
     8                          
     9                          	EXTERN __divschar
    10                          	EXTERN __divschar_callee
    11                          	EXTERN __divsint
    12                          	EXTERN __divsint_callee
    13                          	EXTERN __divslong
    14                          	EXTERN __divslong_callee
    15                          	EXTERN __divslonglong
    16                          	EXTERN __divslonglong_callee
    17                          	EXTERN __divsuchar
    18                          	EXTERN __divsuchar_callee
    19                          	EXTERN __divuchar
    20                          	EXTERN __divuchar_callee
    21                          	EXTERN __divuint
    22                          	EXTERN __divuint_callee
    23                          	EXTERN __divulong
    24                          	EXTERN __divulong_callee
    25                          	EXTERN __divulonglong
    26                          	EXTERN __divulonglong_callee
    27                          	EXTERN __divuschar
    28                          	EXTERN __divuschar_callee
    29                          	EXTERN __modschar
    30                          	EXTERN __modschar_callee
    31                          	EXTERN __modsint
    32                          	EXTERN __modsint_callee
    33                          	EXTERN __modslong
    34                          	EXTERN __modslong_callee
    35                          	EXTERN __modslonglong
    36                          	EXTERN __modslonglong_callee
    37                          	EXTERN __modsuchar
    38                          	EXTERN __modsuchar_callee
    39                          	EXTERN __moduchar
    40                          	EXTERN __moduchar_callee
    41                          	EXTERN __moduint
    42                          	EXTERN __moduint_callee
    43                          	EXTERN __modulong
    44                          	EXTERN __modulong_callee
    45                          	EXTERN __modulonglong
    46                          	EXTERN __modulonglong_callee
    47                          	EXTERN __moduschar
    48                          	EXTERN __moduschar_callee
    49                          	EXTERN __mulint
    50                          	EXTERN __mulint_callee
    51                          	EXTERN __mullong
    52                          	EXTERN __mullong_callee
    53                          	EXTERN __mullonglong
    54                          	EXTERN __mullonglong_callee
    55                          	EXTERN __mulschar
    56                          	EXTERN __mulschar_callee
    57                          	EXTERN __mulsuchar
    58                          	EXTERN __mulsuchar_callee
    59                          	EXTERN __muluchar
    60                          	EXTERN __muluchar_callee
    61                          	EXTERN __muluschar
    62                          	EXTERN __muluschar_callee
    63                          	EXTERN __rlslonglong
    64                          	EXTERN __rlslonglong_callee
    65                          	EXTERN __rlulonglong
    66                          	EXTERN __rlulonglong_callee
    67                          	EXTERN __rrslonglong
    68                          	EXTERN __rrslonglong_callee
    69                          	EXTERN __rrulonglong
    70                          	EXTERN __rrulonglong_callee
    71                          	EXTERN ___mulsint2slong
    72                          	EXTERN ___mulsint2slong_callee
    73                          	EXTERN ___muluint2ulong
    74                          	EXTERN ___muluint2ulong_callee
    75                          	EXTERN ___sdcc_call_hl
    76                          	EXTERN ___sdcc_call_iy
    77                          	EXTERN ___sdcc_enter_ix
    78                          	EXTERN banked_call
    79                          	EXTERN _banked_ret
    80                          	EXTERN ___fs2schar
    81                          	EXTERN ___fs2schar_callee
    82                          	EXTERN ___fs2sint
    83                          	EXTERN ___fs2sint_callee
    84                          	EXTERN ___fs2slong
    85                          	EXTERN ___fs2slong_callee
    86                          	EXTERN ___fs2slonglong
    87                          	EXTERN ___fs2slonglong_callee
    88                          	EXTERN ___fs2uchar
    89                          	EXTERN ___fs2uchar_callee
    90                          	EXTERN ___fs2uint
    91                          	EXTERN ___fs2uint_callee
    92                          	EXTERN ___fs2ulong
    93                          	EXTERN ___fs2ulong_callee
    94                          	EXTERN ___fs2ulonglong
    95                          	EXTERN ___fs2ulonglong_callee
    96                          	EXTERN ___fsadd
    97                          	EXTERN ___fsadd_callee
    98                          	EXTERN ___fsdiv
    99                          	EXTERN ___fsdiv_callee
   100                          	EXTERN ___fseq
   101                          	EXTERN ___fseq_callee
   102                          	EXTERN ___fsgt
   103                          	EXTERN ___fsgt_callee
   104                          	EXTERN ___fslt
   105                          	EXTERN ___fslt_callee
   106                          	EXTERN ___fsmul
   107                          	EXTERN ___fsmul_callee
   108                          	EXTERN ___fsneq
   109                          	EXTERN ___fsneq_callee
   110                          	EXTERN ___fssub
   111                          	EXTERN ___fssub_callee
   112                          	EXTERN ___schar2fs
   113                          	EXTERN ___schar2fs_callee
   114                          	EXTERN ___sint2fs
   115                          	EXTERN ___sint2fs_callee
   116                          	EXTERN ___slong2fs
   117                          	EXTERN ___slong2fs_callee
   118                          	EXTERN ___slonglong2fs
   119                          	EXTERN ___slonglong2fs_callee
   120                          	EXTERN ___uchar2fs
   121                          	EXTERN ___uchar2fs_callee
   122                          	EXTERN ___uint2fs
   123                          	EXTERN ___uint2fs_callee
   124                          	EXTERN ___ulong2fs
   125                          	EXTERN ___ulong2fs_callee
   126                          	EXTERN ___ulonglong2fs
   127                          	EXTERN ___ulonglong2fs_callee
   128                          	EXTERN ____sdcc_2_copy_src_mhl_dst_deix
   129                          	EXTERN ____sdcc_2_copy_src_mhl_dst_bcix
   130                          	EXTERN ____sdcc_4_copy_src_mhl_dst_deix
   131                          	EXTERN ____sdcc_4_copy_src_mhl_dst_bcix
   132                          	EXTERN ____sdcc_4_copy_src_mhl_dst_mbc
   133                          	EXTERN ____sdcc_4_ldi_nosave_bc
   134                          	EXTERN ____sdcc_4_ldi_save_bc
   135                          	EXTERN ____sdcc_4_push_hlix
   136                          	EXTERN ____sdcc_4_push_mhl
   137                          	EXTERN ____sdcc_lib_setmem_hl
   138                          	EXTERN ____sdcc_ll_add_de_bc_hl
   139                          	EXTERN ____sdcc_ll_add_de_bc_hlix
   140                          	EXTERN ____sdcc_ll_add_de_hlix_bc
   141                          	EXTERN ____sdcc_ll_add_de_hlix_bcix
   142                          	EXTERN ____sdcc_ll_add_deix_bc_hl
   143                          	EXTERN ____sdcc_ll_add_deix_hlix
   144                          	EXTERN ____sdcc_ll_add_hlix_bc_deix
   145                          	EXTERN ____sdcc_ll_add_hlix_deix_bc
   146                          	EXTERN ____sdcc_ll_add_hlix_deix_bcix
   147                          	EXTERN ____sdcc_ll_asr_hlix_a
   148                          	EXTERN ____sdcc_ll_asr_mbc_a
   149                          	EXTERN ____sdcc_ll_copy_src_de_dst_hlix
   150                          	EXTERN ____sdcc_ll_copy_src_de_dst_hlsp
   151                          	EXTERN ____sdcc_ll_copy_src_deix_dst_hl
   152                          	EXTERN ____sdcc_ll_copy_src_deix_dst_hlix
   153                          	EXTERN ____sdcc_ll_copy_src_deixm_dst_hlsp
   154                          	EXTERN ____sdcc_ll_copy_src_desp_dst_hlsp
   155                          	EXTERN ____sdcc_ll_copy_src_hl_dst_de
   156                          	EXTERN ____sdcc_ll_copy_src_hlsp_dst_de
   157                          	EXTERN ____sdcc_ll_copy_src_hlsp_dst_deixm
   158                          	EXTERN ____sdcc_ll_lsl_hlix_a
   159                          	EXTERN ____sdcc_ll_lsl_mbc_a
   160                          	EXTERN ____sdcc_ll_lsr_hlix_a
   161                          	EXTERN ____sdcc_ll_lsr_mbc_a
   162                          	EXTERN ____sdcc_ll_push_hlix
   163                          	EXTERN ____sdcc_ll_push_mhl
   164                          	EXTERN ____sdcc_ll_sub_de_bc_hl
   165                          	EXTERN ____sdcc_ll_sub_de_bc_hlix
   166                          	EXTERN ____sdcc_ll_sub_de_hlix_bc
   167                          	EXTERN ____sdcc_ll_sub_de_hlix_bcix
   168                          	EXTERN ____sdcc_ll_sub_deix_bc_hl
   169                          	EXTERN ____sdcc_ll_sub_deix_hlix
   170                          	EXTERN ____sdcc_ll_sub_hlix_bc_deix
   171                          	EXTERN ____sdcc_ll_sub_hlix_deix_bc
   172                          	EXTERN ____sdcc_ll_sub_hlix_deix_bcix
   173                          	EXTERN ____sdcc_load_debc_deix
   174                          	EXTERN ____sdcc_load_dehl_deix
   175                          	EXTERN ____sdcc_load_debc_mhl
   176                          	EXTERN ____sdcc_load_hlde_mhl
   177                          	EXTERN ____sdcc_store_dehl_bcix
   178                          	EXTERN ____sdcc_store_debc_hlix
   179                          	EXTERN ____sdcc_store_debc_mhl
   180                          	EXTERN ____sdcc_cpu_pop_ei
   181                          	EXTERN ____sdcc_cpu_pop_ei_jp
   182                          	EXTERN ____sdcc_cpu_push_di
   183                          	EXTERN ____sdcc_outi
   184                          	EXTERN ____sdcc_outi_128
   185                          	EXTERN ____sdcc_outi_256
   186                          	EXTERN ____sdcc_ldi
   187                          	EXTERN ____sdcc_ldi_128
   188                          	EXTERN ____sdcc_ldi_256
   189                          	EXTERN ____sdcc_4_copy_srcd_hlix_dst_deix
   190                          	EXTERN ____sdcc_4_and_src_mbc_mhl_dst_deix
   191                          	EXTERN ____sdcc_4_or_src_mbc_mhl_dst_deix
   192                          	EXTERN ____sdcc_4_xor_src_mbc_mhl_dst_deix
   193                          	EXTERN ____sdcc_4_or_src_dehl_dst_bcix
   194                          	EXTERN ____sdcc_4_xor_src_dehl_dst_bcix
   195                          	EXTERN ____sdcc_4_and_src_dehl_dst_bcix
   196                          	EXTERN ____sdcc_4_xor_src_mbc_mhl_dst_debc
   197                          	EXTERN ____sdcc_4_or_src_mbc_mhl_dst_debc
   198                          	EXTERN ____sdcc_4_and_src_mbc_mhl_dst_debc
   199                          	EXTERN ____sdcc_4_cpl_src_mhl_dst_debc
   200                          	EXTERN ____sdcc_4_xor_src_debc_mhl_dst_debc
   201                          	EXTERN ____sdcc_4_or_src_debc_mhl_dst_debc
   202                          	EXTERN ____sdcc_4_and_src_debc_mhl_dst_debc
   203                          	EXTERN ____sdcc_4_and_src_debc_hlix_dst_debc
   204                          	EXTERN ____sdcc_4_or_src_debc_hlix_dst_debc
   205                          	EXTERN ____sdcc_4_xor_src_debc_hlix_dst_debc
   206                          
   207                          ;--------------------------------------------------------
   208                          ; Public variables in this module
   209                          ;--------------------------------------------------------
   210                          	GLOBAL _main
   211                          	GLOBAL _main_esp_detect_bps
   212                          ;--------------------------------------------------------
   213                          ; Externals used
   214                          ;--------------------------------------------------------
   215                          	GLOBAL _uart_rx_readline_last
   216                          	GLOBAL _uart_rx_readline
   217                          	GLOBAL _uart_tx
   218                          	GLOBAL _uart_set_prescaler
   219                          	GLOBAL _uart_compute_prescaler
   220                          	GLOBAL _esp_detect_bps
   221                          	GLOBAL _esp_response_ok
   222                          	GLOBAL _layer2_blit_off_screen_sub_column
   223                          	GLOBAL _layer2_blit_off_screen_column
   224                          	GLOBAL _layer2_blit_off_screen_sub_row
   225                          	GLOBAL _layer2_blit_transparent
   226                          	GLOBAL _layer2_blit
   227                          	GLOBAL _layer2_fill_rect
   228                          	GLOBAL _layer2_set_font
   229                          	GLOBAL _layer2_draw_text
   230                          	GLOBAL _layer2_draw_rect
   231                          	GLOBAL _layer2_draw_line
   232                          	GLOBAL _layer2_draw_pixel
   233                          	GLOBAL _layer2_copy_off_screen
   234                          	GLOBAL _layer2_load_palette
   235                          	GLOBAL _layer2_load_screen
   236                          	GLOBAL _layer2_clear_screen
   237                          	GLOBAL _layer2_get_offset_y
   238                          	GLOBAL _layer2_set_offset_y
   239                          	GLOBAL _layer2_get_offset_x
   240                          	GLOBAL _layer2_set_offset_x
   241                          	GLOBAL _layer2_reset_palette
   242                          	GLOBAL _layer2_set_palette
   243                          	GLOBAL _layer2_set_rw_palette
   244                          	GLOBAL _layer2_set_display_palette
   245                          	GLOBAL _layer2_get_global_transparency_color
   246                          	GLOBAL _layer2_set_global_transparency_color
   247                          	GLOBAL _layer2_flip_main_shadow_screen
   248                          	GLOBAL _layer2_get_shadow_screen_ram_bank
   249                          	GLOBAL _layer2_set_shadow_screen_ram_bank
   250                          	GLOBAL _layer2_get_main_screen_ram_bank
   251                          	GLOBAL _layer2_set_main_screen_ram_bank
   252                          	GLOBAL _layer2_set_layer_priorities
   253                          	GLOBAL _layer2_configure
   254                          	GLOBAL _ffsll_callee
   255                          	GLOBAL _ffsll
   256                          	GLOBAL _strxfrm_callee
   257                          	GLOBAL _strxfrm
   258                          	GLOBAL _strupr_fastcall
   259                          	GLOBAL _strupr
   260                          	GLOBAL _strtok_r_callee
   261                          	GLOBAL _strtok_r
   262                          	GLOBAL _strtok_callee
   263                          	GLOBAL _strtok
   264                          	GLOBAL _strstrip_fastcall
   265                          	GLOBAL _strstrip
   266                          	GLOBAL _strstr_callee
   267                          	GLOBAL _strstr
   268                          	GLOBAL _strspn_callee
   269                          	GLOBAL _strspn
   270                          	GLOBAL _strsep_callee
   271                          	GLOBAL _strsep
   272                          	GLOBAL _strrstrip_fastcall
   273                          	GLOBAL _strrstrip
   274                          	GLOBAL _strrstr_callee
   275                          	GLOBAL _strrstr
   276                          	GLOBAL _strrspn_callee
   277                          	GLOBAL _strrspn
   278                          	GLOBAL _strrev_fastcall
   279                          	GLOBAL _strrev
   280                          	GLOBAL _strrcspn_callee
   281                          	GLOBAL _strrcspn
   282                          	GLOBAL _strrchr_callee
   283                          	GLOBAL _strrchr
   284                          	GLOBAL _strpbrk_callee
   285                          	GLOBAL _strpbrk
   286                          	GLOBAL _strnlen_callee
   287                          	GLOBAL _strnlen
   288                          	GLOBAL _strnicmp_callee
   289                          	GLOBAL _strnicmp
   290                          	GLOBAL _strndup_callee
   291                          	GLOBAL _strndup
   292                          	GLOBAL _strncpy_callee
   293                          	GLOBAL _strncpy
   294                          	GLOBAL _strncmp_callee
   295                          	GLOBAL _strncmp
   296                          	GLOBAL _strnchr_callee
   297                          	GLOBAL _strnchr
   298                          	GLOBAL _strncat_callee
   299                          	GLOBAL _strncat
   300                          	GLOBAL _strncasecmp_callee
   301                          	GLOBAL _strncasecmp
   302                          	GLOBAL _strlwr_fastcall
   303                          	GLOBAL _strlwr
   304                          	GLOBAL _strlen_fastcall
   305                          	GLOBAL _strlen
   306                          	GLOBAL _strlcpy_callee
   307                          	GLOBAL _strlcpy
   308                          	GLOBAL _strlcat_callee
   309                          	GLOBAL _strlcat
   310                          	GLOBAL _stricmp_callee
   311                          	GLOBAL _stricmp
   312                          	GLOBAL _strerror_fastcall
   313                          	GLOBAL _strerror
   314                          	GLOBAL _strdup_fastcall
   315                          	GLOBAL _strdup
   316                          	GLOBAL _strcspn_callee
   317                          	GLOBAL _strcspn
   318                          	GLOBAL _strcpy_callee
   319                          	GLOBAL _strcpy
   320                          	GLOBAL _strcoll_callee
   321                          	GLOBAL _strcoll
   322                          	GLOBAL _strcmp_callee
   323                          	GLOBAL _strcmp
   324                          	GLOBAL _strchrnul_callee
   325                          	GLOBAL _strchrnul
   326                          	GLOBAL _strchr_callee
   327                          	GLOBAL _strchr
   328                          	GLOBAL _strcat_callee
   329                          	GLOBAL _strcat
   330                          	GLOBAL _strcasecmp_callee
   331                          	GLOBAL _strcasecmp
   332                          	GLOBAL _stpncpy_callee
   333                          	GLOBAL _stpncpy
   334                          	GLOBAL _stpcpy_callee
   335                          	GLOBAL _stpcpy
   336                          	GLOBAL _memswap_callee
   337                          	GLOBAL _memswap
   338                          	GLOBAL _memset_wr_callee
   339                          	GLOBAL _memset_wr
   340                          	GLOBAL _memset_callee
   341                          	GLOBAL _memset
   342                          	GLOBAL _memrchr_callee
   343                          	GLOBAL _memrchr
   344                          	GLOBAL _memmove_callee
   345                          	GLOBAL _memmove
   346                          	GLOBAL _memmem_callee
   347                          	GLOBAL _memmem
   348                          	GLOBAL _memcpy_callee
   349                          	GLOBAL _memcpy
   350                          	GLOBAL _memcmp_callee
   351                          	GLOBAL _memcmp
   352                          	GLOBAL _memchr_callee
   353                          	GLOBAL _memchr
   354                          	GLOBAL _memccpy_callee
   355                          	GLOBAL _memccpy
   356                          	GLOBAL _ffsl_fastcall
   357                          	GLOBAL _ffsl
   358                          	GLOBAL _ffs_fastcall
   359                          	GLOBAL _ffs
   360                          	GLOBAL __strrstrip__fastcall
   361                          	GLOBAL __strrstrip_
   362                          	GLOBAL __memupr__callee
   363                          	GLOBAL __memupr_
   364                          	GLOBAL __memstrcpy__callee
   365                          	GLOBAL __memstrcpy_
   366                          	GLOBAL __memlwr__callee
   367                          	GLOBAL __memlwr_
   368                          	GLOBAL _rawmemchr_callee
   369                          	GLOBAL _rawmemchr
   370                          	GLOBAL _strnset_callee
   371                          	GLOBAL _strnset
   372                          	GLOBAL _strset_callee
   373                          	GLOBAL _strset
   374                          	GLOBAL _rindex_callee
   375                          	GLOBAL _rindex
   376                          	GLOBAL _index_callee
   377                          	GLOBAL _index
   378                          	GLOBAL _bzero_callee
   379                          	GLOBAL _bzero
   380                          	GLOBAL _bcopy_callee
   381                          	GLOBAL _bcopy
   382                          	GLOBAL _bcmp_callee
   383                          	GLOBAL _bcmp
   384                          	GLOBAL _tmpnam_ex_fastcall
   385                          	GLOBAL _tmpnam_ex
   386                          	GLOBAL _tmpnam_fastcall
   387                          	GLOBAL _tmpnam
   388                          	GLOBAL _vscanf_unlocked_callee
   389                          	GLOBAL _vscanf_unlocked
   390                          	GLOBAL _vprintf_unlocked_callee
   391                          	GLOBAL _vprintf_unlocked
   392                          	GLOBAL _vfscanf_unlocked_callee
   393                          	GLOBAL _vfscanf_unlocked
   394                          	GLOBAL _vfprintf_unlocked_callee
   395                          	GLOBAL _vfprintf_unlocked
   396                          	GLOBAL _ungetc_unlocked_callee
   397                          	GLOBAL _ungetc_unlocked
   398                          	GLOBAL _scanf_unlocked
   399                          	GLOBAL _rewind_unlocked_fastcall
   400                          	GLOBAL _rewind_unlocked
   401                          	GLOBAL _puts_unlocked_fastcall
   402                          	GLOBAL _puts_unlocked
   403                          	GLOBAL _putchar_unlocked_fastcall
   404                          	GLOBAL _putchar_unlocked
   405                          	GLOBAL _putc_unlocked_callee
   406                          	GLOBAL _putc_unlocked
   407                          	GLOBAL _printf_unlocked
   408                          	GLOBAL _gets_unlocked_fastcall
   409                          	GLOBAL _gets_unlocked
   410                          	GLOBAL _getline_unlocked_callee
   411                          	GLOBAL _getline_unlocked
   412                          	GLOBAL _getdelim_unlocked_callee
   413                          	GLOBAL _getdelim_unlocked
   414                          	GLOBAL _getchar_unlocked
   415                          	GLOBAL _getc_unlocked_fastcall
   416                          	GLOBAL _getc_unlocked
   417                          	GLOBAL _fwrite_unlocked_callee
   418                          	GLOBAL _fwrite_unlocked
   419                          	GLOBAL _ftell_unlocked_fastcall
   420                          	GLOBAL _ftell_unlocked
   421                          	GLOBAL _fsetpos_unlocked_callee
   422                          	GLOBAL _fsetpos_unlocked
   423                          	GLOBAL _fseek_unlocked_callee
   424                          	GLOBAL _fseek_unlocked
   425                          	GLOBAL _fscanf_unlocked
   426                          	GLOBAL _freopen_unlocked_callee
   427                          	GLOBAL _freopen_unlocked
   428                          	GLOBAL _fread_unlocked_callee
   429                          	GLOBAL _fread_unlocked
   430                          	GLOBAL _fputs_unlocked_callee
   431                          	GLOBAL _fputs_unlocked
   432                          	GLOBAL _fputc_unlocked_callee
   433                          	GLOBAL _fputc_unlocked
   434                          	GLOBAL _fprintf_unlocked
   435                          	GLOBAL _fileno_unlocked_fastcall
   436                          	GLOBAL _fileno_unlocked
   437                          	GLOBAL _fgets_unlocked_callee
   438                          	GLOBAL _fgets_unlocked
   439                          	GLOBAL _fgetpos_unlocked_callee
   440                          	GLOBAL _fgetpos_unlocked
   441                          	GLOBAL _fgetc_unlocked_fastcall
   442                          	GLOBAL _fgetc_unlocked
   443                          	GLOBAL _fflush_unlocked_fastcall
   444                          	GLOBAL _fflush_unlocked
   445                          	GLOBAL _ferror_unlocked_fastcall
   446                          	GLOBAL _ferror_unlocked
   447                          	GLOBAL _feof_unlocked_fastcall
   448                          	GLOBAL _feof_unlocked
   449                          	GLOBAL _fclose_unlocked_fastcall
   450                          	GLOBAL _fclose_unlocked
   451                          	GLOBAL _clearerr_unlocked_fastcall
   452                          	GLOBAL _clearerr_unlocked
   453                          	GLOBAL _vsscanf_callee
   454                          	GLOBAL _vsscanf
   455                          	GLOBAL _vsprintf_callee
   456                          	GLOBAL _vsprintf
   457                          	GLOBAL _vsnprintf_callee
   458                          	GLOBAL _vsnprintf
   459                          	GLOBAL _vscanf_callee
   460                          	GLOBAL _vscanf
   461                          	GLOBAL _vprintf_callee
   462                          	GLOBAL _vprintf
   463                          	GLOBAL _vfscanf_callee
   464                          	GLOBAL _vfscanf
   465                          	GLOBAL _vfprintf_callee
   466                          	GLOBAL _vfprintf
   467                          	GLOBAL _vasprintf_callee
   468                          	GLOBAL _vasprintf
   469                          	GLOBAL _ungetc_callee
   470                          	GLOBAL _ungetc
   471                          	GLOBAL _sscanf
   472                          	GLOBAL _sprintf
   473                          	GLOBAL _snprintf
   474                          	GLOBAL _scanf
   475                          	GLOBAL _rewind_fastcall
   476                          	GLOBAL _rewind
   477                          	GLOBAL _puts_fastcall
   478                          	GLOBAL _puts
   479                          	GLOBAL _putchar_fastcall
   480                          	GLOBAL _putchar
   481                          	GLOBAL _putc_callee
   482                          	GLOBAL _putc
   483                          	GLOBAL _printf
   484                          	GLOBAL _perror_fastcall
   485                          	GLOBAL _perror
   486                          	GLOBAL _open_memstream_callee
   487                          	GLOBAL _open_memstream
   488                          	GLOBAL _obstack_vprintf_callee
   489                          	GLOBAL _obstack_vprintf
   490                          	GLOBAL _obstack_printf
   491                          	GLOBAL _gets_fastcall
   492                          	GLOBAL _gets
   493                          	GLOBAL _getline_callee
   494                          	GLOBAL _getline
   495                          	GLOBAL _getdelim_callee
   496                          	GLOBAL _getdelim
   497                          	GLOBAL _getchar
   498                          	GLOBAL _getc_fastcall
   499                          	GLOBAL _getc
   500                          	GLOBAL _fwrite_callee
   501                          	GLOBAL _fwrite
   502                          	GLOBAL _funlockfile_fastcall
   503                          	GLOBAL _funlockfile
   504                          	GLOBAL _ftrylockfile_fastcall
   505                          	GLOBAL _ftrylockfile
   506                          	GLOBAL _ftell_fastcall
   507                          	GLOBAL _ftell
   508                          	GLOBAL _fsetpos_callee
   509                          	GLOBAL _fsetpos
   510                          	GLOBAL _fseek_callee
   511                          	GLOBAL _fseek
   512                          	GLOBAL _fscanf
   513                          	GLOBAL _freopen_callee
   514                          	GLOBAL _freopen
   515                          	GLOBAL _fread_callee
   516                          	GLOBAL _fread
   517                          	GLOBAL _fputs_callee
   518                          	GLOBAL _fputs
   519                          	GLOBAL _fputc_callee
   520                          	GLOBAL _fputc
   521                          	GLOBAL _fprintf
   522                          	GLOBAL _fopen_callee
   523                          	GLOBAL _fopen
   524                          	GLOBAL _fmemopen_callee
   525                          	GLOBAL _fmemopen
   526                          	GLOBAL _flockfile_fastcall
   527                          	GLOBAL _flockfile
   528                          	GLOBAL _fileno_fastcall
   529                          	GLOBAL _fileno
   530                          	GLOBAL _fgets_callee
   531                          	GLOBAL _fgets
   532                          	GLOBAL _fgetpos_callee
   533                          	GLOBAL _fgetpos
   534                          	GLOBAL _fgetc_fastcall
   535                          	GLOBAL _fgetc
   536                          	GLOBAL _fflush_fastcall
   537                          	GLOBAL _fflush
   538                          	GLOBAL _ferror_fastcall
   539                          	GLOBAL _ferror
   540                          	GLOBAL _feof_fastcall
   541                          	GLOBAL _feof
   542                          	GLOBAL _fdopen_callee
   543                          	GLOBAL _fdopen
   544                          	GLOBAL _fclose_fastcall
   545                          	GLOBAL _fclose
   546                          	GLOBAL _clearerr_fastcall
   547                          	GLOBAL _clearerr
   548                          	GLOBAL _asprintf
   549                          	GLOBAL __fmemopen__callee
   550                          	GLOBAL __fmemopen_
   551                          	GLOBAL _intrinsic_swap_word_32_fastcall
   552                          	GLOBAL _intrinsic_swap_word_32
   553                          	GLOBAL _intrinsic_swap_endian_32_fastcall
   554                          	GLOBAL _intrinsic_swap_endian_32
   555                          	GLOBAL _intrinsic_swap_endian_16_fastcall
   556                          	GLOBAL _intrinsic_swap_endian_16
   557                          	GLOBAL _intrinsic_return_de
   558                          	GLOBAL _intrinsic_return_bc
   559                          	GLOBAL _intrinsic_exx
   560                          	GLOBAL _intrinsic_ex_de_hl
   561                          	GLOBAL _intrinsic_nop
   562                          	GLOBAL _intrinsic_im_2
   563                          	GLOBAL _intrinsic_im_1
   564                          	GLOBAL _intrinsic_im_0
   565                          	GLOBAL _intrinsic_retn
   566                          	GLOBAL _intrinsic_reti
   567                          	GLOBAL _intrinsic_halt
   568                          	GLOBAL _intrinsic_ei
   569                          	GLOBAL _intrinsic_di
   570                          	GLOBAL _intrinsic_stub
   571                          	GLOBAL _intrinsic_ini
   572                          	GLOBAL _intrinsic_outi
   573                          	GLOBAL _intrinsic_ldi
   574                          	GLOBAL _z80_otdr_callee
   575                          	GLOBAL _z80_otdr
   576                          	GLOBAL _z80_otir_callee
   577                          	GLOBAL _z80_otir
   578                          	GLOBAL _z80_outp_callee
   579                          	GLOBAL _z80_outp
   580                          	GLOBAL _z80_indr_callee
   581                          	GLOBAL _z80_indr
   582                          	GLOBAL _z80_inir_callee
   583                          	GLOBAL _z80_inir
   584                          	GLOBAL _z80_inp_fastcall
   585                          	GLOBAL _z80_inp
   586                          	GLOBAL _z80_set_int_state_fastcall
   587                          	GLOBAL _z80_set_int_state
   588                          	GLOBAL _z80_get_int_state
   589                          	GLOBAL _z80_delay_tstate_fastcall
   590                          	GLOBAL _z80_delay_tstate
   591                          	GLOBAL _z80_delay_ms_fastcall
   592                          	GLOBAL _z80_delay_ms
   593                          	GLOBAL _im2_remove_generic_callback_callee
   594                          	GLOBAL _im2_remove_generic_callback
   595                          	GLOBAL _im2_prepend_generic_callback_callee
   596                          	GLOBAL _im2_prepend_generic_callback
   597                          	GLOBAL _im2_append_generic_callback_callee
   598                          	GLOBAL _im2_append_generic_callback
   599                          	GLOBAL _im2_create_generic_isr_8080_callee
   600                          	GLOBAL _im2_create_generic_isr_8080
   601                          	GLOBAL _im2_create_generic_isr_callee
   602                          	GLOBAL _im2_create_generic_isr
   603                          	GLOBAL _im2_install_isr_callee
   604                          	GLOBAL _im2_install_isr
   605                          	GLOBAL _im2_init_fastcall
   606                          	GLOBAL _im2_init
   607                          	GLOBAL _in_mouse_kempston_wheel_delta
   608                          	GLOBAL _in_mouse_kempston_wheel
   609                          	GLOBAL _in_mouse_kempston_callee
   610                          	GLOBAL _in_mouse_kempston
   611                          	GLOBAL _in_mouse_kempston_setpos_callee
   612                          	GLOBAL _in_mouse_kempston_setpos
   613                          	GLOBAL _in_mouse_kempston_reset
   614                          	GLOBAL _in_mouse_kempston_init
   615                          	GLOBAL _in_mouse_amx_wheel_delta
   616                          	GLOBAL _in_mouse_amx_wheel
   617                          	GLOBAL _in_mouse_amx_callee
   618                          	GLOBAL _in_mouse_amx
   619                          	GLOBAL _in_mouse_amx_setpos_callee
   620                          	GLOBAL _in_mouse_amx_setpos
   621                          	GLOBAL _in_mouse_amx_reset
   622                          	GLOBAL _in_mouse_amx_init_callee
   623                          	GLOBAL _in_mouse_amx_init
   624                          	GLOBAL _in_stick_sinclair2
   625                          	GLOBAL _in_stick_sinclair1
   626                          	GLOBAL _in_stick_kempston
   627                          	GLOBAL _in_stick_fuller
   628                          	GLOBAL _in_stick_cursor
   629                          	GLOBAL _in_stick_keyboard_fastcall
   630                          	GLOBAL _in_stick_keyboard
   631                          	GLOBAL _in_wait_nokey
   632                          	GLOBAL _in_wait_key
   633                          	GLOBAL _in_test_key
   634                          	GLOBAL _in_pause_fastcall
   635                          	GLOBAL _in_pause
   636                          	GLOBAL _in_key_scancode_fastcall
   637                          	GLOBAL _in_key_scancode
   638                          	GLOBAL _in_key_pressed_fastcall
   639                          	GLOBAL _in_key_pressed
   640                          	GLOBAL _in_inkey
   641                          	GLOBAL _zx_pattern_fill_callee
   642                          	GLOBAL _zx_pattern_fill
   643                          	GLOBAL _tshr_saddrpup_fastcall
   644                          	GLOBAL _tshr_saddrpup
   645                          	GLOBAL _tshr_saddrpright_callee
   646                          	GLOBAL _tshr_saddrpright
   647                          	GLOBAL _tshr_saddrpleft_callee
   648                          	GLOBAL _tshr_saddrpleft
   649                          	GLOBAL _tshr_saddrpdown_fastcall
   650                          	GLOBAL _tshr_saddrpdown
   651                          	GLOBAL _tshr_saddrcup_fastcall
   652                          	GLOBAL _tshr_saddrcup
   653                          	GLOBAL _tshr_saddrcright_fastcall
   654                          	GLOBAL _tshr_saddrcright
   655                          	GLOBAL _tshr_saddrcleft_fastcall
   656                          	GLOBAL _tshr_saddrcleft
   657                          	GLOBAL _tshr_saddrcdown_fastcall
   658                          	GLOBAL _tshr_saddrcdown
   659                          	GLOBAL _tshr_saddr2py_fastcall
   660                          	GLOBAL _tshr_saddr2py
   661                          	GLOBAL _tshr_saddr2px_fastcall
   662                          	GLOBAL _tshr_saddr2px
   663                          	GLOBAL _tshr_saddr2cy_fastcall
   664                          	GLOBAL _tshr_saddr2cy
   665                          	GLOBAL _tshr_saddr2cx_fastcall
   666                          	GLOBAL _tshr_saddr2cx
   667                          	GLOBAL _tshr_py2saddr_fastcall
   668                          	GLOBAL _tshr_py2saddr
   669                          	GLOBAL _tshr_pxy2saddr_callee
   670                          	GLOBAL _tshr_pxy2saddr
   671                          	GLOBAL _tshr_px2bitmask_fastcall
   672                          	GLOBAL _tshr_px2bitmask
   673                          	GLOBAL _tshr_cy2saddr_fastcall
   674                          	GLOBAL _tshr_cy2saddr
   675                          	GLOBAL _tshr_cxy2saddr_callee
   676                          	GLOBAL _tshr_cxy2saddr
   677                          	GLOBAL _tshr_bitmask2px_fastcall
   678                          	GLOBAL _tshr_bitmask2px
   679                          	GLOBAL _tshc_saddrpup_fastcall
   680                          	GLOBAL _tshc_saddrpup
   681                          	GLOBAL _tshc_saddrpright_callee
   682                          	GLOBAL _tshc_saddrpright
   683                          	GLOBAL _tshc_saddrpleft_callee
   684                          	GLOBAL _tshc_saddrpleft
   685                          	GLOBAL _tshc_saddrpdown_fastcall
   686                          	GLOBAL _tshc_saddrpdown
   687                          	GLOBAL _tshc_saddrcup_fastcall
   688                          	GLOBAL _tshc_saddrcup
   689                          	GLOBAL _tshc_saddrcright_fastcall
   690                          	GLOBAL _tshc_saddrcright
   691                          	GLOBAL _tshc_saddrcleft_fastcall
   692                          	GLOBAL _tshc_saddrcleft
   693                          	GLOBAL _tshc_saddrcdown_fastcall
   694                          	GLOBAL _tshc_saddrcdown
   695                          	GLOBAL _tshc_saddr2py_fastcall
   696                          	GLOBAL _tshc_saddr2py
   697                          	GLOBAL _tshc_saddr2px_fastcall
   698                          	GLOBAL _tshc_saddr2px
   699                          	GLOBAL _tshc_saddr2cy_fastcall
   700                          	GLOBAL _tshc_saddr2cy
   701                          	GLOBAL _tshc_saddr2cx_fastcall
   702                          	GLOBAL _tshc_saddr2cx
   703                          	GLOBAL _tshc_saddr2aaddr_fastcall
   704                          	GLOBAL _tshc_saddr2aaddr
   705                          	GLOBAL _tshc_py2saddr_fastcall
   706                          	GLOBAL _tshc_py2saddr
   707                          	GLOBAL _tshc_py2aaddr_fastcall
   708                          	GLOBAL _tshc_py2aaddr
   709                          	GLOBAL _tshc_pxy2saddr_callee
   710                          	GLOBAL _tshc_pxy2saddr
   711                          	GLOBAL _tshc_pxy2aaddr_callee
   712                          	GLOBAL _tshc_pxy2aaddr
   713                          	GLOBAL _tshc_px2bitmask_fastcall
   714                          	GLOBAL _tshc_px2bitmask
   715                          	GLOBAL _tshc_cy2saddr_fastcall
   716                          	GLOBAL _tshc_cy2saddr
   717                          	GLOBAL _tshc_cy2aaddr_fastcall
   718                          	GLOBAL _tshc_cy2aaddr
   719                          	GLOBAL _tshc_cxy2saddr_callee
   720                          	GLOBAL _tshc_cxy2saddr
   721                          	GLOBAL _tshc_cxy2aaddr_callee
   722                          	GLOBAL _tshc_cxy2aaddr
   723                          	GLOBAL _tshc_bitmask2px_fastcall
   724                          	GLOBAL _tshc_bitmask2px
   725                          	GLOBAL _tshc_aaddrpup_fastcall
   726                          	GLOBAL _tshc_aaddrpup
   727                          	GLOBAL _tshc_aaddrpright_callee
   728                          	GLOBAL _tshc_aaddrpright
   729                          	GLOBAL _tshc_aaddrpleft_callee
   730                          	GLOBAL _tshc_aaddrpleft
   731                          	GLOBAL _tshc_aaddrpdown_fastcall
   732                          	GLOBAL _tshc_aaddrpdown
   733                          	GLOBAL _tshc_aaddrcup_fastcall
   734                          	GLOBAL _tshc_aaddrcup
   735                          	GLOBAL _tshc_aaddrcright_fastcall
   736                          	GLOBAL _tshc_aaddrcright
   737                          	GLOBAL _tshc_aaddrcleft_fastcall
   738                          	GLOBAL _tshc_aaddrcleft
   739                          	GLOBAL _tshc_aaddrcdown_fastcall
   740                          	GLOBAL _tshc_aaddrcdown
   741                          	GLOBAL _tshc_aaddr2saddr_fastcall
   742                          	GLOBAL _tshc_aaddr2saddr
   743                          	GLOBAL _tshc_aaddr2py_fastcall
   744                          	GLOBAL _tshc_aaddr2py
   745                          	GLOBAL _tshc_aaddr2px_fastcall
   746                          	GLOBAL _tshc_aaddr2px
   747                          	GLOBAL _tshc_aaddr2cy_fastcall
   748                          	GLOBAL _tshc_aaddr2cy
   749                          	GLOBAL _tshc_aaddr2cx_fastcall
   750                          	GLOBAL _tshc_aaddr2cx
   751                          	GLOBAL _zx_saddrpup_fastcall
   752                          	GLOBAL _zx_saddrpup
   753                          	GLOBAL _zx_saddrpright_callee
   754                          	GLOBAL _zx_saddrpright
   755                          	GLOBAL _zx_saddrpleft_callee
   756                          	GLOBAL _zx_saddrpleft
   757                          	GLOBAL _zx_saddrpdown_fastcall
   758                          	GLOBAL _zx_saddrpdown
   759                          	GLOBAL _zx_saddrcup_fastcall
   760                          	GLOBAL _zx_saddrcup
   761                          	GLOBAL _zx_saddrcright_fastcall
   762                          	GLOBAL _zx_saddrcright
   763                          	GLOBAL _zx_saddrcleft_fastcall
   764                          	GLOBAL _zx_saddrcleft
   765                          	GLOBAL _zx_saddrcdown_fastcall
   766                          	GLOBAL _zx_saddrcdown
   767                          	GLOBAL _zx_saddr2py_fastcall
   768                          	GLOBAL _zx_saddr2py
   769                          	GLOBAL _zx_saddr2px_fastcall
   770                          	GLOBAL _zx_saddr2px
   771                          	GLOBAL _zx_saddr2cy_fastcall
   772                          	GLOBAL _zx_saddr2cy
   773                          	GLOBAL _zx_saddr2cx_fastcall
   774                          	GLOBAL _zx_saddr2cx
   775                          	GLOBAL _zx_saddr2aaddr_fastcall
   776                          	GLOBAL _zx_saddr2aaddr
   777                          	GLOBAL _zx_py2saddr_fastcall
   778                          	GLOBAL _zx_py2saddr
   779                          	GLOBAL _zx_py2aaddr_fastcall
   780                          	GLOBAL _zx_py2aaddr
   781                          	GLOBAL _zx_pxy2saddr_callee
   782                          	GLOBAL _zx_pxy2saddr
   783                          	GLOBAL _zx_pxy2aaddr_callee
   784                          	GLOBAL _zx_pxy2aaddr
   785                          	GLOBAL _zx_px2bitmask_fastcall
   786                          	GLOBAL _zx_px2bitmask
   787                          	GLOBAL _zx_cy2saddr_fastcall
   788                          	GLOBAL _zx_cy2saddr
   789                          	GLOBAL _zx_cy2aaddr_fastcall
   790                          	GLOBAL _zx_cy2aaddr
   791                          	GLOBAL _zx_cxy2saddr_callee
   792                          	GLOBAL _zx_cxy2saddr
   793                          	GLOBAL _zx_cxy2aaddr_callee
   794                          	GLOBAL _zx_cxy2aaddr
   795                          	GLOBAL _zx_bitmask2px_fastcall
   796                          	GLOBAL _zx_bitmask2px
   797                          	GLOBAL _zx_aaddrcup_fastcall
   798                          	GLOBAL _zx_aaddrcup
   799                          	GLOBAL _zx_aaddrcright_fastcall
   800                          	GLOBAL _zx_aaddrcright
   801                          	GLOBAL _zx_aaddrcleft_fastcall
   802                          	GLOBAL _zx_aaddrcleft
   803                          	GLOBAL _zx_aaddrcdown_fastcall
   804                          	GLOBAL _zx_aaddrcdown
   805                          	GLOBAL _zx_aaddr2saddr_fastcall
   806                          	GLOBAL _zx_aaddr2saddr
   807                          	GLOBAL _zx_aaddr2py_fastcall
   808                          	GLOBAL _zx_aaddr2py
   809                          	GLOBAL _zx_aaddr2px_fastcall
   810                          	GLOBAL _zx_aaddr2px
   811                          	GLOBAL _zx_aaddr2cy_fastcall
   812                          	GLOBAL _zx_aaddr2cy
   813                          	GLOBAL _zx_aaddr2cx_fastcall
   814                          	GLOBAL _zx_aaddr2cx
   815                          	GLOBAL _tshr_visit_wc_pix_callee
   816                          	GLOBAL _tshr_visit_wc_pix
   817                          	GLOBAL _tshr_scroll_wc_up_pix_callee
   818                          	GLOBAL _tshr_scroll_wc_up_pix
   819                          	GLOBAL _tshr_scroll_up_pix_callee
   820                          	GLOBAL _tshr_scroll_up_pix
   821                          	GLOBAL _tshr_scroll_up_callee
   822                          	GLOBAL _tshr_scroll_up
   823                          	GLOBAL _tshr_cls_wc_pix_callee
   824                          	GLOBAL _tshr_cls_wc_pix
   825                          	GLOBAL _tshr_cls_pix_fastcall
   826                          	GLOBAL _tshr_cls_pix
   827                          	GLOBAL _tshr_cls_attr_fastcall
   828                          	GLOBAL _tshr_cls_attr
   829                          	GLOBAL _tshr_cls_fastcall
   830                          	GLOBAL _tshr_cls
   831                          	GLOBAL _tshc_visit_wc_pix_callee
   832                          	GLOBAL _tshc_visit_wc_pix
   833                          	GLOBAL _tshc_visit_wc_attr_callee
   834                          	GLOBAL _tshc_visit_wc_attr
   835                          	GLOBAL _tshc_scroll_wc_up_pix_callee
   836                          	GLOBAL _tshc_scroll_wc_up_pix
   837                          	GLOBAL _tshc_scroll_wc_up_attr_callee
   838                          	GLOBAL _tshc_scroll_wc_up_attr
   839                          	GLOBAL _tshc_scroll_wc_up_callee
   840                          	GLOBAL _tshc_scroll_wc_up
   841                          	GLOBAL _tshc_scroll_up_pix_callee
   842                          	GLOBAL _tshc_scroll_up_pix
   843                          	GLOBAL _tshc_scroll_up_attr_callee
   844                          	GLOBAL _tshc_scroll_up_attr
   845                          	GLOBAL _tshc_scroll_up_callee
   846                          	GLOBAL _tshc_scroll_up
   847                          	GLOBAL _tshc_cls_wc_pix_callee
   848                          	GLOBAL _tshc_cls_wc_pix
   849                          	GLOBAL _tshc_cls_wc_attr_callee
   850                          	GLOBAL _tshc_cls_wc_attr
   851                          	GLOBAL _tshc_cls_wc_callee
   852                          	GLOBAL _tshc_cls_wc
   853                          	GLOBAL _tshc_cls_pix_fastcall
   854                          	GLOBAL _tshc_cls_pix
   855                          	GLOBAL _tshc_cls_attr_fastcall
   856                          	GLOBAL _tshc_cls_attr
   857                          	GLOBAL _tshc_cls_fastcall
   858                          	GLOBAL _tshc_cls
   859                          	GLOBAL _zx_visit_wc_pix_callee
   860                          	GLOBAL _zx_visit_wc_pix
   861                          	GLOBAL _zx_visit_wc_attr_callee
   862                          	GLOBAL _zx_visit_wc_attr
   863                          	GLOBAL _zx_scroll_wc_up_pix_callee
   864                          	GLOBAL _zx_scroll_wc_up_pix
   865                          	GLOBAL _zx_scroll_wc_up_attr_callee
   866                          	GLOBAL _zx_scroll_wc_up_attr
   867                          	GLOBAL _zx_scroll_wc_up_callee
   868                          	GLOBAL _zx_scroll_wc_up
   869                          	GLOBAL _zx_scroll_up_pix_callee
   870                          	GLOBAL _zx_scroll_up_pix
   871                          	GLOBAL _zx_scroll_up_attr_callee
   872                          	GLOBAL _zx_scroll_up_attr
   873                          	GLOBAL _zx_scroll_up_callee
   874                          	GLOBAL _zx_scroll_up
   875                          	GLOBAL _zx_cls_wc_pix_callee
   876                          	GLOBAL _zx_cls_wc_pix
   877                          	GLOBAL _zx_cls_wc_attr_callee
   878                          	GLOBAL _zx_cls_wc_attr
   879                          	GLOBAL _zx_cls_wc_callee
   880                          	GLOBAL _zx_cls_wc
   881                          	GLOBAL _zx_cls_pix_fastcall
   882                          	GLOBAL _zx_cls_pix
   883                          	GLOBAL _zx_cls_attr_fastcall
   884                          	GLOBAL _zx_cls_attr
   885                          	GLOBAL _zx_cls_fastcall
   886                          	GLOBAL _zx_cls
   887                          	GLOBAL _zx_border_fastcall
   888                          	GLOBAL _zx_border
   889                          	GLOBAL _ts_vmod_fastcall
   890                          	GLOBAL _ts_vmod
   891                          	GLOBAL _zx_tape_verify_block_callee
   892                          	GLOBAL _zx_tape_verify_block
   893                          	GLOBAL _zx_tape_save_block_callee
   894                          	GLOBAL _zx_tape_save_block
   895                          	GLOBAL _zx_tape_load_block_callee
   896                          	GLOBAL _zx_tape_load_block
   897                          	GLOBAL _check_version_nextzxos_fastcall
   898                          	GLOBAL _check_version_nextzxos
   899                          	GLOBAL _check_version_esxdos_fastcall
   900                          	GLOBAL _check_version_esxdos
   901                          	GLOBAL _check_version_core_fastcall
   902                          	GLOBAL _check_version_core
   903                          	GLOBAL _zxn_mangle_bank_state_fastcall
   904                          	GLOBAL _zxn_mangle_bank_state
   905                          	GLOBAL _zxn_write_sysvar_bank_state_fastcall
   906                          	GLOBAL _zxn_write_sysvar_bank_state
   907                          	GLOBAL _zxn_read_sysvar_bank_state
   908                          	GLOBAL _zxn_write_bank_state_fastcall
   909                          	GLOBAL _zxn_write_bank_state
   910                          	GLOBAL _zxn_write_mmu_state_fastcall
   911                          	GLOBAL _zxn_write_mmu_state
   912                          	GLOBAL _zxn_read_mmu_state_fastcall
   913                          	GLOBAL _zxn_read_mmu_state
   914                          	GLOBAL _zxn_page_from_addr_fastcall
   915                          	GLOBAL _zxn_page_from_addr
   916                          	GLOBAL _zxn_addr_from_page_fastcall
   917                          	GLOBAL _zxn_addr_from_page
   918                          	GLOBAL _zxn_addr_in_mmu_callee
   919                          	GLOBAL _zxn_addr_in_mmu
   920                          	GLOBAL _zxn_mmu_from_addr_fastcall
   921                          	GLOBAL _zxn_mmu_from_addr
   922                          	GLOBAL _zxn_addr_from_mmu_fastcall
   923                          	GLOBAL _zxn_addr_from_mmu
   924                          	GLOBAL _ZXN_WRITE_MMU7_fastcall
   925                          	GLOBAL _ZXN_WRITE_MMU7
   926                          	GLOBAL _ZXN_WRITE_MMU6_fastcall
   927                          	GLOBAL _ZXN_WRITE_MMU6
   928                          	GLOBAL _ZXN_WRITE_MMU5_fastcall
   929                          	GLOBAL _ZXN_WRITE_MMU5
   930                          	GLOBAL _ZXN_WRITE_MMU4_fastcall
   931                          	GLOBAL _ZXN_WRITE_MMU4
   932                          	GLOBAL _ZXN_WRITE_MMU3_fastcall
   933                          	GLOBAL _ZXN_WRITE_MMU3
   934                          	GLOBAL _ZXN_WRITE_MMU2_fastcall
   935                          	GLOBAL _ZXN_WRITE_MMU2
   936                          	GLOBAL _ZXN_WRITE_MMU1_fastcall
   937                          	GLOBAL _ZXN_WRITE_MMU1
   938                          	GLOBAL _ZXN_WRITE_MMU0_fastcall
   939                          	GLOBAL _ZXN_WRITE_MMU0
   940                          	GLOBAL _ZXN_READ_MMU7
   941                          	GLOBAL _ZXN_READ_MMU6
   942                          	GLOBAL _ZXN_READ_MMU5
   943                          	GLOBAL _ZXN_READ_MMU4
   944                          	GLOBAL _ZXN_READ_MMU3
   945                          	GLOBAL _ZXN_READ_MMU2
   946                          	GLOBAL _ZXN_READ_MMU1
   947                          	GLOBAL _ZXN_READ_MMU0
   948                          	GLOBAL _ZXN_WRITE_REG_callee
   949                          	GLOBAL _ZXN_WRITE_REG
   950                          	GLOBAL _ZXN_READ_REG_fastcall
   951                          	GLOBAL _ZXN_READ_REG
   952                          	GLOBAL _esp_response_time_ms
   953                          	GLOBAL _esp_bps
   954                          	GLOBAL _buffer
   955                          	GLOBAL _STRING_ESP_RX_OK
   956                          	GLOBAL _STRING_ESP_TX_AT_GMR
   957                          	GLOBAL _STRING_ESP_TX_AT
   958                          	GLOBAL _stderr
   959                          	GLOBAL _stdout
   960                          	GLOBAL _stdin
   961                          	GLOBAL __MAX_FOPEN
   962                          	GLOBAL _GLOBAL_ZXN_PORT_DFFD
   963                          	GLOBAL _GLOBAL_ZXN_PORT_7FFD
   964                          	GLOBAL _GLOBAL_ZXN_PORT_1FFD
   965                          	GLOBAL _GLOBAL_ZXN_PORT_FE
   966                          	GLOBAL _GLOBAL_TS_PORT_FE
   967                          	GLOBAL _GLOBAL_ZX_PORT_7FFD
   968                          	GLOBAL _GLOBAL_ZX_PORT_1FFD
   969                          	GLOBAL _GLOBAL_ZX_PORT_FE
   970                          ;--------------------------------------------------------
   971                          ; special function registers
   972                          ;--------------------------------------------------------
   973                          defc _IO_FE	=	0x00fe
   974                          defc _IO_FF	=	0x00ff
   975                          defc _IO_TIMEX_VIDEO_MODE	=	0x00ff
   976                          defc _IO_1FFD	=	0x1ffd
   977                          defc _IO_7FFD	=	0x7ffd
   978                          defc _IO_DFFD	=	0xdffd
   979                          defc _IO_0F	=	0x000f
   980                          defc _IO_DAC_L0	=	0x000f
   981                          defc _IO_1F	=	0x001f
   982                          defc _IO_DAC_L1	=	0x001f
   983                          defc _IO_4F	=	0x004f
   984                          defc _IO_DAC_R0	=	0x004f
   985                          defc _IO_5F	=	0x005f
   986                          defc _IO_DAC_R1	=	0x005f
   987                          defc _IO_DF	=	0x00df
   988                          defc _IO_DAC_M0	=	0x00df
   989                          defc _IO_FFFD	=	0xfffd
   990                          defc _IO_TURBOSOUND	=	0xfffd
   991                          defc _IO_AY_REG	=	0xfffd
   992                          defc _IO_BFFD	=	0xbffd
   993                          defc _IO_AY_DAT	=	0xbffd
   994                          defc _IO_123B	=	0x123b
   995                          defc _IO_LAYER_2_CONFIG	=	0x123b
   996                          defc _IO_303B	=	0x303b
   997                          defc _IO_SPRITE_SLOT	=	0x303b
   998                          defc _IO_SPRITE_FLAGS	=	0x303b
   999                          defc _IO_57	=	0x0057
  1000                          defc _IO_SPRITE_ATTRIBUTE	=	0x0057
  1001                          defc _IO_5B	=	0x005b
  1002                          defc _IO_SPRITE_PATTERN	=	0x005b
  1003                          defc _IO_143B	=	0x143b
  1004                          defc _IO_UART_RX	=	0x143b
  1005                          defc _IO_UART_BAUD_RATE	=	0x143b
  1006                          defc _IO_133B	=	0x133b
  1007                          defc _IO_UART_TX	=	0x133b
  1008                          defc _IO_UART_STATUS	=	0x133b
  1009                          defc _IO_6B	=	0x006b
  1010                          defc _IO_DMA	=	0x006b
  1011                          defc _IO_E3	=	0x00e3
  1012                          defc _IO_DIVIDE_CONTROL	=	0x00e3
  1013                          defc _IO_E7	=	0x00e7
  1014                          defc _IO_SPI_CONTROL	=	0x00e7
  1015                          defc _IO_SPI_STATUS	=	0x00e7
  1016                          defc _IO_EB	=	0x00eb
  1017                          defc _IO_SPI_DATA	=	0x00eb
  1018                          defc _IO_103B	=	0x103b
  1019                          defc _IO_I2C_SCL	=	0x103b
  1020                          defc _IO_113B	=	0x113b
  1021                          defc _IO_I2C_SDA	=	0x113b
  1022                          defc _IO_LED_L	=	0x103b
  1023                          defc _IO_243B	=	0x243b
  1024                          defc _IO_NEXTREG_REG	=	0x243b
  1025                          defc _IO_253B	=	0x253b
  1026                          defc _IO_NEXTREG_DAT	=	0x253b
  1027                          defc _IO_153B	=	0x153b
  1028                          ;--------------------------------------------------------
  1029                          ; ram data
  1030                          ;--------------------------------------------------------
  1031                          	SECTION bss_compiler
  1032                          _tall_sprite:
  1033  0000  0000000000000000  	DEFS 192
              0000000000000000  
              0000000000000000  
              0000000000000000  
              0000000000000000  
              0000000000000000  
              0000000000000000  
              0000000000000000  
              0000000000000000  
              0000000000000000  
              0000000000000000  
              0000000000000000  
              0000000000000000  
              0000000000000000  
              0000000000000000  
              0000000000000000  
              0000000000000000  
              0000000000000000  
              0000000000000000  
              0000000000000000  
              0000000000000000  
              0000000000000000  
              0000000000000000  
              0000000000000000  
  1034                          _pos:
  1035  00c0  0000000000000000  	DEFS 128
              0000000000000000  
              0000000000000000  
              0000000000000000  
              0000000000000000  
              0000000000000000  
              0000000000000000  
              0000000000000000  
              0000000000000000  
              0000000000000000  
              0000000000000000  
              0000000000000000  
              0000000000000000  
              0000000000000000  
              0000000000000000  
              0000000000000000  
  1036                          ;--------------------------------------------------------
  1037                          ; ram data
  1038                          ;--------------------------------------------------------
  1039                          
  1040                          IF 0
  1041                          
  1042                          ; .area _INITIALIZED removed by z88dk
  1043                          
  1044                          _test_number:
  1045                          	DEFS 1
  1046                          _shadow_screen:
  1047                          	DEFS 5
  1048                          _off_screen:
  1049                          	DEFS 5
  1050                          
  1051                          ENDIF
  1052                          
  1053                          ;--------------------------------------------------------
  1054                          ; absolute external ram data
  1055                          ;--------------------------------------------------------
  1056                          	SECTION IGNORE
  1057                          ;--------------------------------------------------------
  1058                          ; global & static initialisations
  1059                          ;--------------------------------------------------------
  1060                          	SECTION code_crt_init
  1061                          ;--------------------------------------------------------
  1062                          ; Home
  1063                          ;--------------------------------------------------------
  1064                          	SECTION IGNORE
  1065                          ;--------------------------------------------------------
  1066                          ; code
  1067                          ;--------------------------------------------------------
  1068                          	SECTION code_compiler
  1069                          ;	---------------------------------
  1070                          ; Function main_esp_detect_bps
  1071                          ; ---------------------------------
  1072                          _main_esp_detect_bps:
  1073  0000  213002            	ld	hl,___str_1
  1074  0003  e5                	push	hl
  1075  0004  cd0000            	call	_puts
  1076  0007  f1                	pop	af
  1077  0008  cd0000            	call	_esp_detect_bps
  1078  000b  7d                	ld	a, l
  1079  000c  b7                	or	a, a
  1080  000d  2016              	jr	NZ,l_main_esp_detect_bps_00102
  1081  000f  210000            	ld	hl,_esp_bps
  1082  0012  3600              	ld	(hl),0x00
  1083  0014  23                	inc	hl
  1084  0015  36c2              	ld	(hl),0xc2
  1085  0017  23                	inc	hl
  1086  0018  3601              	ld	(hl),0x01
  1087  001a  af                	xor	a, a
  1088  001b  23                	inc	hl
  1089  001c  77                	ld	(hl), a
  1090  001d  214802            	ld	hl,___str_2
  1091  0020  e5                	push	hl
  1092  0021  cd0000            	call	_printf
  1093  0024  f1                	pop	af
  1094                          l_main_esp_detect_bps_00102:
  1095  0025  2a0200            	ld	hl, (_esp_bps + 2)
  1096  0028  e5                	push	hl
  1097  0029  2a0000            	ld	hl, (_esp_bps)
  1098  002c  e5                	push	hl
  1099  002d  216502            	ld	hl,___str_3
  1100  0030  e5                	push	hl
  1101  0031  cd0000            	call	_printf
  1102  0034  f1                	pop	af
  1103  0035  f1                	pop	af
  1104  0036  f1                	pop	af
  1105  0037  2a0200            	ld	hl, (_esp_bps + 2)
  1106  003a  e5                	push	hl
  1107  003b  2a0000            	ld	hl, (_esp_bps)
  1108  003e  e5                	push	hl
  1109  003f  cd0000            	call	_uart_compute_prescaler
  1110  0042  f1                	pop	af
  1111  0043  f1                	pop	af
  1112  0044  d5                	push	de
  1113  0045  e5                	push	hl
  1114  0046  cd0000            	call	_uart_set_prescaler
  1115  0049  f1                	pop	af
  1116  004a  f1                	pop	af
  1117  004b  c9                	ret
  1118                          	SECTION rodata_compiler
  1119                          _sprite:
  1120  0000  e3                	DEFB +0xe3
  1121  0001  e3                	DEFB +0xe3
  1122  0002  e3                	DEFB +0xe3
  1123  0003  ff                	DEFB +0xff
  1124  0004  ff                	DEFB +0xff
  1125  0005  ff                	DEFB +0xff
  1126  0006  ff                	DEFB +0xff
  1127  0007  ff                	DEFB +0xff
  1128  0008  ff                	DEFB +0xff
  1129  0009  e3                	DEFB +0xe3
  1130  000a  e3                	DEFB +0xe3
  1131  000b  e3                	DEFB +0xe3
  1132  000c  e3                	DEFB +0xe3
  1133  000d  e3                	DEFB +0xe3
  1134  000e  ff                	DEFB +0xff
  1135  000f  0f                	DEFB +0x0f
  1136  0010  0f                	DEFB +0x0f
  1137  0011  0f                	DEFB +0x0f
  1138  0012  0f                	DEFB +0x0f
  1139  0013  0f                	DEFB +0x0f
  1140  0014  0f                	DEFB +0x0f
  1141  0015  ff                	DEFB +0xff
  1142  0016  e3                	DEFB +0xe3
  1143  0017  e3                	DEFB +0xe3
  1144  0018  e3                	DEFB +0xe3
  1145  0019  ff                	DEFB +0xff
  1146  001a  0f                	DEFB +0x0f
  1147  001b  0f                	DEFB +0x0f
  1148  001c  0f                	DEFB +0x0f
  1149  001d  0f                	DEFB +0x0f
  1150  001e  0f                	DEFB +0x0f
  1151  001f  0f                	DEFB +0x0f
  1152  0020  0f                	DEFB +0x0f
  1153  0021  0f                	DEFB +0x0f
  1154  0022  ff                	DEFB +0xff
  1155  0023  e3                	DEFB +0xe3
  1156  0024  ff                	DEFB +0xff
  1157  0025  0f                	DEFB +0x0f
  1158  0026  0f                	DEFB +0x0f
  1159  0027  0f                	DEFB +0x0f
  1160  0028  ff                	DEFB +0xff
  1161  0029  ff                	DEFB +0xff
  1162  002a  ff                	DEFB +0xff
  1163  002b  0f                	DEFB +0x0f
  1164  002c  0f                	DEFB +0x0f
  1165  002d  0f                	DEFB +0x0f
  1166  002e  0f                	DEFB +0x0f
  1167  002f  ff                	DEFB +0xff
  1168  0030  ff                	DEFB +0xff
  1169  0031  0f                	DEFB +0x0f
  1170  0032  0f                	DEFB +0x0f
  1171  0033  0f                	DEFB +0x0f
  1172  0034  ff                	DEFB +0xff
  1173  0035  0f                	DEFB +0x0f
  1174  0036  ff                	DEFB +0xff
  1175  0037  ff                	DEFB +0xff
  1176  0038  0f                	DEFB +0x0f
  1177  0039  0f                	DEFB +0x0f
  1178  003a  0f                	DEFB +0x0f
  1179  003b  ff                	DEFB +0xff
  1180  003c  ff                	DEFB +0xff
  1181  003d  0f                	DEFB +0x0f
  1182  003e  0f                	DEFB +0x0f
  1183  003f  0f                	DEFB +0x0f
  1184  0040  ff                	DEFB +0xff
  1185  0041  0f                	DEFB +0x0f
  1186  0042  0f                	DEFB +0x0f
  1187  0043  ff                	DEFB +0xff
  1188  0044  0f                	DEFB +0x0f
  1189  0045  0f                	DEFB +0x0f
  1190  0046  0f                	DEFB +0x0f
  1191  0047  ff                	DEFB +0xff
  1192  0048  ff                	DEFB +0xff
  1193  0049  0f                	DEFB +0x0f
  1194  004a  0f                	DEFB +0x0f
  1195  004b  0f                	DEFB +0x0f
  1196  004c  ff                	DEFB +0xff
  1197  004d  0f                	DEFB +0x0f
  1198  004e  0f                	DEFB +0x0f
  1199  004f  ff                	DEFB +0xff
  1200  0050  0f                	DEFB +0x0f
  1201  0051  0f                	DEFB +0x0f
  1202  0052  0f                	DEFB +0x0f
  1203  0053  ff                	DEFB +0xff
  1204  0054  ff                	DEFB +0xff
  1205  0055  0f                	DEFB +0x0f
  1206  0056  0f                	DEFB +0x0f
  1207  0057  0f                	DEFB +0x0f
  1208  0058  ff                	DEFB +0xff
  1209  0059  0f                	DEFB +0x0f
  1210  005a  ff                	DEFB +0xff
  1211  005b  ff                	DEFB +0xff
  1212  005c  0f                	DEFB +0x0f
  1213  005d  0f                	DEFB +0x0f
  1214  005e  0f                	DEFB +0x0f
  1215  005f  ff                	DEFB +0xff
  1216  0060  ff                	DEFB +0xff
  1217  0061  0f                	DEFB +0x0f
  1218  0062  0f                	DEFB +0x0f
  1219  0063  0f                	DEFB +0x0f
  1220  0064  ff                	DEFB +0xff
  1221  0065  ff                	DEFB +0xff
  1222  0066  ff                	DEFB +0xff
  1223  0067  0f                	DEFB +0x0f
  1224  0068  0f                	DEFB +0x0f
  1225  0069  0f                	DEFB +0x0f
  1226  006a  0f                	DEFB +0x0f
  1227  006b  ff                	DEFB +0xff
  1228  006c  e3                	DEFB +0xe3
  1229  006d  ff                	DEFB +0xff
  1230  006e  0f                	DEFB +0x0f
  1231  006f  0f                	DEFB +0x0f
  1232  0070  0f                	DEFB +0x0f
  1233  0071  0f                	DEFB +0x0f
  1234  0072  0f                	DEFB +0x0f
  1235  0073  0f                	DEFB +0x0f
  1236  0074  0f                	DEFB +0x0f
  1237  0075  0f                	DEFB +0x0f
  1238  0076  ff                	DEFB +0xff
  1239  0077  e3                	DEFB +0xe3
  1240  0078  e3                	DEFB +0xe3
  1241  0079  e3                	DEFB +0xe3
  1242  007a  ff                	DEFB +0xff
  1243  007b  0f                	DEFB +0x0f
  1244  007c  0f                	DEFB +0x0f
  1245  007d  0f                	DEFB +0x0f
  1246  007e  0f                	DEFB +0x0f
  1247  007f  0f                	DEFB +0x0f
  1248  0080  0f                	DEFB +0x0f
  1249  0081  ff                	DEFB +0xff
  1250  0082  e3                	DEFB +0xe3
  1251  0083  e3                	DEFB +0xe3
  1252  0084  e3                	DEFB +0xe3
  1253  0085  e3                	DEFB +0xe3
  1254  0086  e3                	DEFB +0xe3
  1255  0087  ff                	DEFB +0xff
  1256  0088  ff                	DEFB +0xff
  1257  0089  ff                	DEFB +0xff
  1258  008a  ff                	DEFB +0xff
  1259  008b  ff                	DEFB +0xff
  1260  008c  ff                	DEFB +0xff
  1261  008d  e3                	DEFB +0xe3
  1262  008e  e3                	DEFB +0xe3
  1263  008f  e3                	DEFB +0xe3
  1264                          _cloud:
  1265  0090  ff                	DEFB +0xff
  1266  0091  ff                	DEFB +0xff
  1267  0092  ff                	DEFB +0xff
  1268  0093  ff                	DEFB +0xff
  1269  0094  ff                	DEFB +0xff
  1270  0095  ff                	DEFB +0xff
  1271  0096  ff                	DEFB +0xff
  1272  0097  ff                	DEFB +0xff
  1273  0098  ff                	DEFB +0xff
  1274  0099  ff                	DEFB +0xff
  1275  009a  ff                	DEFB +0xff
  1276  009b  ff                	DEFB +0xff
  1277  009c  ff                	DEFB +0xff
  1278  009d  ff                	DEFB +0xff
  1279  009e  ff                	DEFB +0xff
  1280  009f  ff                	DEFB +0xff
  1281  00a0  ff                	DEFB +0xff
  1282  00a1  ff                	DEFB +0xff
  1283  00a2  ff                	DEFB +0xff
  1284  00a3  ff                	DEFB +0xff
  1285  00a4  ff                	DEFB +0xff
  1286  00a5  ff                	DEFB +0xff
  1287  00a6  ff                	DEFB +0xff
  1288  00a7  ff                	DEFB +0xff
  1289  00a8  ff                	DEFB +0xff
  1290  00a9  ff                	DEFB +0xff
  1291  00aa  ff                	DEFB +0xff
  1292  00ab  ff                	DEFB +0xff
  1293  00ac  ff                	DEFB +0xff
  1294  00ad  ff                	DEFB +0xff
  1295  00ae  ff                	DEFB +0xff
  1296  00af  ff                	DEFB +0xff
  1297  00b0  ff                	DEFB +0xff
  1298  00b1  ff                	DEFB +0xff
  1299  00b2  ff                	DEFB +0xff
  1300  00b3  ff                	DEFB +0xff
  1301  00b4  ff                	DEFB +0xff
  1302  00b5  ff                	DEFB +0xff
  1303  00b6  ff                	DEFB +0xff
  1304  00b7  ff                	DEFB +0xff
  1305  00b8  ff                	DEFB +0xff
  1306  00b9  ff                	DEFB +0xff
  1307  00ba  ff                	DEFB +0xff
  1308  00bb  ff                	DEFB +0xff
  1309  00bc  ff                	DEFB +0xff
  1310  00bd  ff                	DEFB +0xff
  1311  00be  ff                	DEFB +0xff
  1312  00bf  ff                	DEFB +0xff
  1313  00c0  ff                	DEFB +0xff
  1314  00c1  ff                	DEFB +0xff
  1315  00c2  ff                	DEFB +0xff
  1316  00c3  ff                	DEFB +0xff
  1317  00c4  ff                	DEFB +0xff
  1318  00c5  ff                	DEFB +0xff
  1319  00c6  ff                	DEFB +0xff
  1320  00c7  ff                	DEFB +0xff
  1321  00c8  ff                	DEFB +0xff
  1322  00c9  ff                	DEFB +0xff
  1323  00ca  ff                	DEFB +0xff
  1324  00cb  ff                	DEFB +0xff
  1325  00cc  ff                	DEFB +0xff
  1326  00cd  ff                	DEFB +0xff
  1327  00ce  ff                	DEFB +0xff
  1328  00cf  ff                	DEFB +0xff
  1329  00d0  ff                	DEFB +0xff
  1330  00d1  ff                	DEFB +0xff
  1331  00d2  ff                	DEFB +0xff
  1332  00d3  ff                	DEFB +0xff
  1333  00d4  ff                	DEFB +0xff
  1334  00d5  ff                	DEFB +0xff
  1335  00d6  ff                	DEFB +0xff
  1336  00d7  ff                	DEFB +0xff
  1337  00d8  ff                	DEFB +0xff
  1338  00d9  ff                	DEFB +0xff
  1339  00da  ff                	DEFB +0xff
  1340  00db  ff                	DEFB +0xff
  1341  00dc  ff                	DEFB +0xff
  1342  00dd  ff                	DEFB +0xff
  1343  00de  ff                	DEFB +0xff
  1344  00df  ff                	DEFB +0xff
  1345  00e0  ff                	DEFB +0xff
  1346  00e1  ff                	DEFB +0xff
  1347  00e2  ff                	DEFB +0xff
  1348  00e3  ff                	DEFB +0xff
  1349  00e4  ff                	DEFB +0xff
  1350  00e5  ff                	DEFB +0xff
  1351  00e6  ff                	DEFB +0xff
  1352  00e7  ff                	DEFB +0xff
  1353  00e8  ff                	DEFB +0xff
  1354  00e9  ff                	DEFB +0xff
  1355  00ea  ff                	DEFB +0xff
  1356  00eb  ff                	DEFB +0xff
  1357  00ec  ff                	DEFB +0xff
  1358  00ed  ff                	DEFB +0xff
  1359  00ee  ff                	DEFB +0xff
  1360  00ef  ff                	DEFB +0xff
  1361  00f0  ff                	DEFB +0xff
  1362  00f1  ff                	DEFB +0xff
  1363  00f2  ff                	DEFB +0xff
  1364  00f3  ff                	DEFB +0xff
  1365  00f4  ff                	DEFB +0xff
  1366  00f5  ff                	DEFB +0xff
  1367  00f6  ff                	DEFB +0xff
  1368  00f7  ff                	DEFB +0xff
  1369  00f8  ff                	DEFB +0xff
  1370  00f9  ff                	DEFB +0xff
  1371  00fa  ff                	DEFB +0xff
  1372  00fb  ff                	DEFB +0xff
  1373  00fc  ff                	DEFB +0xff
  1374  00fd  ff                	DEFB +0xff
  1375  00fe  ff                	DEFB +0xff
  1376  00ff  ff                	DEFB +0xff
  1377  0100  ff                	DEFB +0xff
  1378  0101  ff                	DEFB +0xff
  1379  0102  ff                	DEFB +0xff
  1380  0103  ff                	DEFB +0xff
  1381  0104  ff                	DEFB +0xff
  1382  0105  ff                	DEFB +0xff
  1383  0106  ff                	DEFB +0xff
  1384  0107  ff                	DEFB +0xff
  1385  0108  ff                	DEFB +0xff
  1386  0109  ff                	DEFB +0xff
  1387  010a  ff                	DEFB +0xff
  1388  010b  ff                	DEFB +0xff
  1389  010c  ff                	DEFB +0xff
  1390  010d  ff                	DEFB +0xff
  1391  010e  ff                	DEFB +0xff
  1392  010f  ff                	DEFB +0xff
  1393  0110  ff                	DEFB +0xff
  1394  0111  ff                	DEFB +0xff
  1395  0112  ff                	DEFB +0xff
  1396  0113  ff                	DEFB +0xff
  1397  0114  ff                	DEFB +0xff
  1398  0115  ff                	DEFB +0xff
  1399  0116  ff                	DEFB +0xff
  1400  0117  ff                	DEFB +0xff
  1401  0118  ff                	DEFB +0xff
  1402  0119  ff                	DEFB +0xff
  1403  011a  ff                	DEFB +0xff
  1404  011b  ff                	DEFB +0xff
  1405  011c  ff                	DEFB +0xff
  1406  011d  ff                	DEFB +0xff
  1407  011e  ff                	DEFB +0xff
  1408  011f  ff                	DEFB +0xff
  1409  0120  ff                	DEFB +0xff
  1410  0121  ff                	DEFB +0xff
  1411  0122  ff                	DEFB +0xff
  1412  0123  ff                	DEFB +0xff
  1413  0124  ff                	DEFB +0xff
  1414  0125  ff                	DEFB +0xff
  1415  0126  ff                	DEFB +0xff
  1416  0127  ff                	DEFB +0xff
  1417  0128  ff                	DEFB +0xff
  1418  0129  ff                	DEFB +0xff
  1419  012a  ff                	DEFB +0xff
  1420  012b  ff                	DEFB +0xff
  1421  012c  ff                	DEFB +0xff
  1422  012d  ff                	DEFB +0xff
  1423  012e  ff                	DEFB +0xff
  1424  012f  ff                	DEFB +0xff
  1425  0130  ff                	DEFB +0xff
  1426  0131  ff                	DEFB +0xff
  1427  0132  ff                	DEFB +0xff
  1428  0133  ff                	DEFB +0xff
  1429  0134  ff                	DEFB +0xff
  1430  0135  ff                	DEFB +0xff
  1431  0136  ff                	DEFB +0xff
  1432  0137  ff                	DEFB +0xff
  1433  0138  ff                	DEFB +0xff
  1434  0139  ff                	DEFB +0xff
  1435  013a  ff                	DEFB +0xff
  1436  013b  ff                	DEFB +0xff
  1437  013c  ff                	DEFB +0xff
  1438  013d  ff                	DEFB +0xff
  1439  013e  ff                	DEFB +0xff
  1440  013f  ff                	DEFB +0xff
  1441  0140  ff                	DEFB +0xff
  1442  0141  ff                	DEFB +0xff
  1443  0142  ff                	DEFB +0xff
  1444  0143  ff                	DEFB +0xff
  1445  0144  ff                	DEFB +0xff
  1446  0145  ff                	DEFB +0xff
  1447  0146  ff                	DEFB +0xff
  1448  0147  ff                	DEFB +0xff
  1449  0148  ff                	DEFB +0xff
  1450  0149  ff                	DEFB +0xff
  1451  014a  ff                	DEFB +0xff
  1452  014b  ff                	DEFB +0xff
  1453  014c  ff                	DEFB +0xff
  1454  014d  ff                	DEFB +0xff
  1455  014e  ff                	DEFB +0xff
  1456  014f  ff                	DEFB +0xff
  1457  0150  ff                	DEFB +0xff
  1458  0151  ff                	DEFB +0xff
  1459  0152  ff                	DEFB +0xff
  1460  0153  ff                	DEFB +0xff
  1461  0154  ff                	DEFB +0xff
  1462  0155  ff                	DEFB +0xff
  1463  0156  ff                	DEFB +0xff
  1464  0157  ff                	DEFB +0xff
  1465  0158  ff                	DEFB +0xff
  1466  0159  ff                	DEFB +0xff
  1467  015a  ff                	DEFB +0xff
  1468  015b  ff                	DEFB +0xff
  1469  015c  ff                	DEFB +0xff
  1470  015d  ff                	DEFB +0xff
  1471  015e  ff                	DEFB +0xff
  1472  015f  ff                	DEFB +0xff
  1473  0160  ff                	DEFB +0xff
  1474  0161  ff                	DEFB +0xff
  1475  0162  ff                	DEFB +0xff
  1476  0163  ff                	DEFB +0xff
  1477  0164  ff                	DEFB +0xff
  1478  0165  ff                	DEFB +0xff
  1479  0166  ff                	DEFB +0xff
  1480  0167  ff                	DEFB +0xff
  1481  0168  ff                	DEFB +0xff
  1482  0169  ff                	DEFB +0xff
  1483  016a  ff                	DEFB +0xff
  1484  016b  ff                	DEFB +0xff
  1485  016c  ff                	DEFB +0xff
  1486  016d  ff                	DEFB +0xff
  1487  016e  ff                	DEFB +0xff
  1488  016f  ff                	DEFB +0xff
  1489  0170  ff                	DEFB +0xff
  1490  0171  ff                	DEFB +0xff
  1491  0172  ff                	DEFB +0xff
  1492  0173  ff                	DEFB +0xff
  1493  0174  ff                	DEFB +0xff
  1494  0175  ff                	DEFB +0xff
  1495  0176  ff                	DEFB +0xff
  1496  0177  ff                	DEFB +0xff
  1497  0178  ff                	DEFB +0xff
  1498  0179  ff                	DEFB +0xff
  1499  017a  ff                	DEFB +0xff
  1500  017b  ff                	DEFB +0xff
  1501  017c  ff                	DEFB +0xff
  1502  017d  ff                	DEFB +0xff
  1503  017e  ff                	DEFB +0xff
  1504  017f  ff                	DEFB +0xff
  1505  0180  ff                	DEFB +0xff
  1506  0181  ff                	DEFB +0xff
  1507  0182  ff                	DEFB +0xff
  1508  0183  ff                	DEFB +0xff
  1509  0184  ff                	DEFB +0xff
  1510  0185  ff                	DEFB +0xff
  1511  0186  ff                	DEFB +0xff
  1512  0187  ff                	DEFB +0xff
  1513  0188  ff                	DEFB +0xff
  1514  0189  ff                	DEFB +0xff
  1515  018a  ff                	DEFB +0xff
  1516  018b  ff                	DEFB +0xff
  1517  018c  ff                	DEFB +0xff
  1518  018d  ff                	DEFB +0xff
  1519  018e  ff                	DEFB +0xff
  1520  018f  ff                	DEFB +0xff
  1521  0190  ff                	DEFB +0xff
  1522  0191  ff                	DEFB +0xff
  1523  0192  ff                	DEFB +0xff
  1524  0193  ff                	DEFB +0xff
  1525  0194  ff                	DEFB +0xff
  1526  0195  ff                	DEFB +0xff
  1527  0196  ff                	DEFB +0xff
  1528  0197  ff                	DEFB +0xff
  1529  0198  ff                	DEFB +0xff
  1530  0199  ff                	DEFB +0xff
  1531  019a  ff                	DEFB +0xff
  1532  019b  ff                	DEFB +0xff
  1533  019c  ff                	DEFB +0xff
  1534  019d  ff                	DEFB +0xff
  1535  019e  ff                	DEFB +0xff
  1536  019f  ff                	DEFB +0xff
  1537  01a0  ff                	DEFB +0xff
  1538  01a1  ff                	DEFB +0xff
  1539  01a2  ff                	DEFB +0xff
  1540  01a3  ff                	DEFB +0xff
  1541  01a4  ff                	DEFB +0xff
  1542  01a5  ff                	DEFB +0xff
  1543  01a6  ff                	DEFB +0xff
  1544  01a7  ff                	DEFB +0xff
  1545  01a8  ff                	DEFB +0xff
  1546  01a9  ff                	DEFB +0xff
  1547  01aa  ff                	DEFB +0xff
  1548  01ab  ff                	DEFB +0xff
  1549  01ac  ff                	DEFB +0xff
  1550  01ad  ff                	DEFB +0xff
  1551  01ae  ff                	DEFB +0xff
  1552  01af  ff                	DEFB +0xff
  1553  01b0  ff                	DEFB +0xff
  1554  01b1  ff                	DEFB +0xff
  1555  01b2  ff                	DEFB +0xff
  1556  01b3  ff                	DEFB +0xff
  1557  01b4  ff                	DEFB +0xff
  1558  01b5  ff                	DEFB +0xff
  1559  01b6  ff                	DEFB +0xff
  1560  01b7  ff                	DEFB +0xff
  1561  01b8  ff                	DEFB +0xff
  1562  01b9  ff                	DEFB +0xff
  1563  01ba  ff                	DEFB +0xff
  1564  01bb  ff                	DEFB +0xff
  1565  01bc  ff                	DEFB +0xff
  1566  01bd  ff                	DEFB +0xff
  1567  01be  ff                	DEFB +0xff
  1568  01bf  ff                	DEFB +0xff
  1569  01c0  ff                	DEFB +0xff
  1570  01c1  ff                	DEFB +0xff
  1571  01c2  ff                	DEFB +0xff
  1572  01c3  ff                	DEFB +0xff
  1573  01c4  ff                	DEFB +0xff
  1574  01c5  ff                	DEFB +0xff
  1575  01c6  ff                	DEFB +0xff
  1576  01c7  ff                	DEFB +0xff
  1577  01c8  ff                	DEFB +0xff
  1578  01c9  ff                	DEFB +0xff
  1579  01ca  ff                	DEFB +0xff
  1580  01cb  ff                	DEFB +0xff
  1581  01cc  ff                	DEFB +0xff
  1582  01cd  ff                	DEFB +0xff
  1583  01ce  ff                	DEFB +0xff
  1584  01cf  ff                	DEFB +0xff
  1585  01d0  ff                	DEFB +0xff
  1586  01d1  ff                	DEFB +0xff
  1587  01d2  ff                	DEFB +0xff
  1588  01d3  ff                	DEFB +0xff
  1589  01d4  ff                	DEFB +0xff
  1590  01d5  ff                	DEFB +0xff
  1591  01d6  ff                	DEFB +0xff
  1592  01d7  ff                	DEFB +0xff
  1593  01d8  ff                	DEFB +0xff
  1594  01d9  ff                	DEFB +0xff
  1595  01da  ff                	DEFB +0xff
  1596  01db  ff                	DEFB +0xff
  1597  01dc  ff                	DEFB +0xff
  1598  01dd  ff                	DEFB +0xff
  1599  01de  ff                	DEFB +0xff
  1600  01df  ff                	DEFB +0xff
  1601  01e0  ff                	DEFB +0xff
  1602  01e1  ff                	DEFB +0xff
  1603  01e2  ff                	DEFB +0xff
  1604  01e3  ff                	DEFB +0xff
  1605  01e4  ff                	DEFB +0xff
  1606  01e5  ff                	DEFB +0xff
  1607  01e6  ff                	DEFB +0xff
  1608  01e7  ff                	DEFB +0xff
  1609  01e8  ff                	DEFB +0xff
  1610  01e9  ff                	DEFB +0xff
  1611  01ea  ff                	DEFB +0xff
  1612  01eb  ff                	DEFB +0xff
  1613  01ec  ff                	DEFB +0xff
  1614  01ed  ff                	DEFB +0xff
  1615  01ee  ff                	DEFB +0xff
  1616  01ef  ff                	DEFB +0xff
  1617  01f0  b6                	DEFB +0xb6
  1618  01f1  ff                	DEFB +0xff
  1619  01f2  ff                	DEFB +0xff
  1620  01f3  ff                	DEFB +0xff
  1621  01f4  ff                	DEFB +0xff
  1622  01f5  ff                	DEFB +0xff
  1623  01f6  ff                	DEFB +0xff
  1624  01f7  ff                	DEFB +0xff
  1625  01f8  ff                	DEFB +0xff
  1626  01f9  ff                	DEFB +0xff
  1627  01fa  b6                	DEFB +0xb6
  1628  01fb  ff                	DEFB +0xff
  1629  01fc  ff                	DEFB +0xff
  1630  01fd  ff                	DEFB +0xff
  1631  01fe  ff                	DEFB +0xff
  1632  01ff  ff                	DEFB +0xff
  1633  0200  b6                	DEFB +0xb6
  1634  0201  ff                	DEFB +0xff
  1635  0202  ff                	DEFB +0xff
  1636  0203  ff                	DEFB +0xff
  1637  0204  ff                	DEFB +0xff
  1638  0205  ff                	DEFB +0xff
  1639  0206  ff                	DEFB +0xff
  1640  0207  ff                	DEFB +0xff
  1641  0208  ff                	DEFB +0xff
  1642  0209  b6                	DEFB +0xb6
  1643  020a  ff                	DEFB +0xff
  1644  020b  ff                	DEFB +0xff
  1645  020c  ff                	DEFB +0xff
  1646  020d  ff                	DEFB +0xff
  1647  020e  ff                	DEFB +0xff
  1648  020f  ff                	DEFB +0xff
  1649  0210  e3                	DEFB +0xe3
  1650  0211  b6                	DEFB +0xb6
  1651  0212  b6                	DEFB +0xb6
  1652  0213  ff                	DEFB +0xff
  1653  0214  ff                	DEFB +0xff
  1654  0215  ff                	DEFB +0xff
  1655  0216  ff                	DEFB +0xff
  1656  0217  b6                	DEFB +0xb6
  1657  0218  b6                	DEFB +0xb6
  1658  0219  e3                	DEFB +0xe3
  1659  021a  b6                	DEFB +0xb6
  1660  021b  ff                	DEFB +0xff
  1661  021c  ff                	DEFB +0xff
  1662  021d  ff                	DEFB +0xff
  1663  021e  ff                	DEFB +0xff
  1664  021f  b6                	DEFB +0xb6
  1665  0220  e3                	DEFB +0xe3
  1666  0221  e3                	DEFB +0xe3
  1667  0222  e3                	DEFB +0xe3
  1668  0223  b6                	DEFB +0xb6
  1669  0224  b6                	DEFB +0xb6
  1670  0225  b6                	DEFB +0xb6
  1671  0226  b6                	DEFB +0xb6
  1672  0227  e3                	DEFB +0xe3
  1673  0228  e3                	DEFB +0xe3
  1674  0229  e3                	DEFB +0xe3
  1675  022a  e3                	DEFB +0xe3
  1676  022b  b6                	DEFB +0xb6
  1677  022c  b6                	DEFB +0xb6
  1678  022d  b6                	DEFB +0xb6
  1679  022e  b6                	DEFB +0xb6
  1680  022f  e3                	DEFB +0xe3
  1681                          	SECTION rodata_compiler
  1682                          ___str_1:
  1683  0230  446574656374696e  	DEFM "Detecting ESP baud rate"
              6720455350206261  
              75642072617465    
  1684  0247  00                	DEFB 0x00
  1685                          	SECTION rodata_compiler
  1686                          ___str_2:
  1687  0248  0a                	DEFB 0x0a
  1688  0249  20204661696c6564  	DEFM "  Failed, selecting default"
              2c2073656c656374  
              696e672064656661  
              756c74            
  1689  0264  00                	DEFB 0x00
  1690                          	SECTION rodata_compiler
  1691                          ___str_3:
  1692  0265  0a                	DEFB 0x0a
  1693  0266  202053657474696e  	DEFM "  Setting uart to %lu"
              6720756172742074  
              6f20256c75        
  1694  027b  0a                	DEFB 0x0a
  1695  027c  00                	DEFB 0x00
  1696                          	SECTION code_compiler
  1697                          ;	---------------------------------
  1698                          ; Function init_hardware
  1699                          ; ---------------------------------
  1700                          _init_hardware:
  1701  004c  ed910703          	nextreg	7,0x03
  1702  0050  2e08              	ld	l,0x08
  1703  0052  013b24            	ld	bc,0x243b
  1704  0055  ed69              	out	(c),l
  1705  0057  04                	inc	b
  1706  0058  ed68              	in	l,(c)
  1707  005a  cbf5              	set	6, l
  1708  005c  7d                	ld	a,l
  1709  005d  ed9208            	nextreg	8,a
  1710  0060  3e08              	ld	a,0x08
  1711  0062  f5                	push	af
  1712  0063  33                	inc	sp
  1713  0064  cd0000            	call	_layer2_set_main_screen_ram_bank
  1714  0067  33                	inc	sp
  1715  0068  3e0b              	ld	a,0x0b
  1716  006a  f5                	push	af
  1717  006b  33                	inc	sp
  1718  006c  cd0000            	call	_layer2_set_shadow_screen_ram_bank
  1719  006f  33                	inc	sp
  1720  0070  c9                	ret
  1721                          ;	---------------------------------
  1722                          ; Function init_isr
  1723                          ; ---------------------------------
  1724                          _init_isr:
  1725  0071  f3                	di
  1726  0072  210060            	ld	hl,0x6000
  1727  0075  cd0000            	call	_im2_init_fastcall
  1728  0078  210060            	ld	hl,0x6000
  1729  007b  3661              	ld	(hl),0x61
  1730  007d  5d                	ld	e, l
  1731  007e  54                	ld	d, h
  1732  007f  13                	inc	de
  1733  0080  010001            	ld	bc,0x0100
  1734  0083  edb0              	ldir
  1735  0085  216161            	ld	hl,0x6161
  1736  0088  36fb              	ld	(hl),0xfb
  1737  008a  2e62              	ld	l,0x62
  1738  008c  36ed              	ld	(hl),0xed
  1739  008e  2e63              	ld	l,0x63
  1740  0090  364d              	ld	(hl),0x4d
  1741  0092  fb                	ei
  1742  0093  c9                	ret
  1743                          ;	---------------------------------
  1744                          ; Function create_start_screen
  1745                          ; ---------------------------------
  1746                          _create_start_screen:
  1747  0094  2e07              	ld	l,0x07
  1748  0096  cd0000            	call	_zx_border_fastcall
  1749  0099  2e38              	ld	l,0x38
  1750  009b  cd0000            	call	_zx_cls_fastcall
  1751  009e  ed910703          	nextreg	0x07,0x03
  1752  00a2  3e00              	ld	a,0x00
  1753  00a4  013b15            	ld	bc,_IO_153B
  1754  00a7  ed79              	out	(c),a
  1755  00a9  217d02            	ld	hl,___str_5
  1756  00ac  e5                	push	hl
  1757  00ad  cd0000            	call	_puts
  1758  00b0  f1                	pop	af
  1759  00b1  210000            	ld	hl,_esp_response_time_ms
  1760  00b4  3647              	ld	(hl),0x47
  1761  00b6  af                	xor	a, a
  1762  00b7  23                	inc	hl
  1763  00b8  77                	ld	(hl), a
  1764  00b9  21ff00            	ld	hl,0x00ff
  1765  00bc  e5                	push	hl
  1766  00bd  210000            	ld	hl,_buffer
  1767  00c0  e5                	push	hl
  1768  00c1  cd0000            	call	_uart_rx_readline_last
  1769  00c4  f1                	pop	af
  1770  00c5  f1                	pop	af
  1771  00c6  210000            	ld	hl,_esp_response_time_ms
  1772  00c9  3647              	ld	(hl),0x47
  1773  00cb  af                	xor	a, a
  1774  00cc  23                	inc	hl
  1775  00cd  77                	ld	(hl), a
  1776  00ce  218802            	ld	hl,___str_7
  1777  00d1  e5                	push	hl
  1778  00d2  cd0000            	call	_puts
  1779  00d5  21ff00            	ld	hl,0x00ff
  1780  00d8  e3                	ex	(sp),hl
  1781  00d9  210000            	ld	hl,_buffer
  1782  00dc  e5                	push	hl
  1783  00dd  cd0000            	call	_uart_rx_readline_last
  1784  00e0  f1                	pop	af
  1785  00e1  f1                	pop	af
  1786  00e2  210000            	ld	hl,_STRING_ESP_TX_AT_GMR
  1787  00e5  cd0000            	call	_uart_tx
  1788  00e8  210000            	ld	hl,_buffer
  1789  00eb  3600              	ld	(hl),0x00
  1790                          l_create_start_screen_00101:
  1791  00ed  210000            	ld	hl,_buffer
  1792  00f0  cd0000            	call	_puts_fastcall
  1793  00f3  210000            	ld	hl,_buffer
  1794  00f6  3600              	ld	(hl),0x00
  1795  00f8  21ff00            	ld	hl,0x00ff
  1796  00fb  e5                	push	hl
  1797  00fc  210000            	ld	hl,_buffer
  1798  00ff  e5                	push	hl
  1799  0100  cd0000            	call	_uart_rx_readline
  1800  0103  f1                	pop	af
  1801  0104  f1                	pop	af
  1802  0105  3a0000            	ld	a, (_buffer + 0)
  1803  0108  b7                	or	a, a
  1804  0109  20e2              	jr	NZ,l_create_start_screen_00101
  1805  010b  219e02            	ld	hl,___str_9
  1806  010e  e5                	push	hl
  1807  010f  cd0000            	call	_puts
  1808  0112  f1                	pop	af
  1809  0113  c9                	ret
  1810                          	SECTION rodata_compiler
  1811                          ___str_5:
  1812  027d  5561727420696e69  	DEFM "Uart init"
              74                
  1813  0286  0d                	DEFB 0x0d
  1814  0287  00                	DEFB 0x00
  1815                          	SECTION rodata_compiler
  1816                          ___str_7:
  1817  0288  4553502041542b47  	DEFM "ESP AT+GMR follows..."
              4d5220666f6c6c6f  
              77732e2e2e        
  1818  029d  00                	DEFB 0x00
  1819                          	SECTION rodata_compiler
  1820                          ___str_9:
  1821  029e  507265737320616e  	DEFM "Press any key to start"
              79206b657920746f  
              207374617274      
  1822  02b4  00                	DEFB 0x00
  1823                          	SECTION code_compiler
  1824                          ;	---------------------------------
  1825                          ; Function init_tests
  1826                          ; ---------------------------------
  1827                          _init_tests:
  1828  0114  2e06              	ld	l,0x06
  1829  0116  cd0000            	call	_zx_border_fastcall
  1830  0119  2e38              	ld	l,0x38
  1831  011b  cd0000            	call	_zx_cls_fastcall
  1832  011e  210000            	ld	hl,_tall_sprite
  1833  0121  06c0              	ld	b,0xc0
  1834                          l_init_tests_00103:
  1835  0123  3627              	ld	(hl),0x27
  1836  0125  23                	inc	hl
  1837  0126  10fb              	djnz	l_init_tests_00103
  1838  0128  af                	xor	a, a
  1839  0129  f5                	push	af
  1840  012a  33                	inc	sp
  1841  012b  af                	xor	a, a
  1842  012c  f5                	push	af
  1843  012d  33                	inc	sp
  1844  012e  af                	xor	a, a
  1845  012f  57                	ld	d,a
  1846  0130  1e01              	ld	e,0x01
  1847  0132  d5                	push	de
  1848  0133  cd0000            	call	_layer2_configure
  1849  0136  f1                	pop	af
  1850  0137  f1                	pop	af
  1851  0138  c9                	ret
  1852                          ;	---------------------------------
  1853                          ; Function drawCloud
  1854                          ; ---------------------------------
  1855                          _drawCloud:
  1856  0139  dde5              	push	ix
  1857  013b  dd210000          	ld	ix,0
  1858  013f  dd39              	add	ix,sp
  1859  0141  010000            	ld	bc,0x0000
  1860  0144  1e00              	ld	e,0x00
  1861                          l_drawCloud_00102:
  1862  0146  79                	ld	a, c
  1863  0147  c5                	push	bc
  1864  0148  d5                	push	de
  1865  0149  dd6e04            	ld	l,(ix+4)
  1866  014c  dd6605            	ld	h,(ix+5)
  1867  014f  e5                	push	hl
  1868  0150  261a              	ld	h,0x1a
  1869  0152  e5                	push	hl
  1870  0153  33                	inc	sp
  1871  0154  211000            	ld	hl,0x0010
  1872  0157  e5                	push	hl
  1873  0158  219000            	ld	hl,_cloud
  1874  015b  e5                	push	hl
  1875  015c  2664              	ld	h,0x64
  1876  015e  e5                	push	hl
  1877  015f  33                	inc	sp
  1878  0160  f5                	push	af
  1879  0161  33                	inc	sp
  1880  0162  cd0000            	call	_layer2_blit_transparent
  1881  0165  210900            	ld	hl,9
  1882  0168  39                	add	hl, sp
  1883  0169  f9                	ld	sp, hl
  1884  016a  d1                	pop	de
  1885  016b  c1                	pop	bc
  1886  016c  3e10              	ld	a,0x10
  1887  016e  ed33              	add	bc, a
  1888  0170  1c                	inc	e
  1889  0171  7b                	ld	a, e
  1890  0172  d610              	sub	a,0x10
  1891  0174  38d0              	jr	C,l_drawCloud_00102
  1892  0176  dde1              	pop	ix
  1893  0178  c9                	ret
  1894                          ;	---------------------------------
  1895                          ; Function test_draw_text
  1896                          ; ---------------------------------
  1897                          _test_draw_text:
  1898  0179  dde5              	push	ix
  1899  017b  dd210000          	ld	ix,0
  1900  017f  dd39              	add	ix,sp
  1901  0181  3ac100            	ld	a, (_pos + 1)
  1902  0184  c60c              	add	a,0x0c
  1903  0186  47                	ld	b, a
  1904  0187  3ac000            	ld	a, (_pos + 0)
  1905  018a  c603              	add	a,0x03
  1906  018c  dd6e04            	ld	l,(ix+4)
  1907  018f  dd6605            	ld	h,(ix+5)
  1908  0192  e5                	push	hl
  1909  0193  26ef              	ld	h,0xef
  1910  0195  e5                	push	hl
  1911  0196  33                	inc	sp
  1912  0197  21b502            	ld	hl,___str_10
  1913  019a  e5                	push	hl
  1914  019b  c5                	push	bc
  1915  019c  33                	inc	sp
  1916  019d  f5                	push	af
  1917  019e  33                	inc	sp
  1918  019f  cd0000            	call	_layer2_draw_text
  1919  01a2  f1                	pop	af
  1920  01a3  f1                	pop	af
  1921  01a4  33                	inc	sp
  1922  01a5  210000            	ld	hl,0x0000
  1923  01a8  e3                	ex	(sp),hl
  1924  01a9  cd0000            	call	_layer2_set_font
  1925  01ac  f1                	pop	af
  1926  01ad  11b502            	ld	de,___str_10
  1927  01b0  21c300            	ld	hl,_pos + 3
  1928  01b3  4e                	ld	c, (hl)
  1929  01b4  3e0c              	ld	a,0x0c
  1930  01b6  91                	sub	a, c
  1931  01b7  47                	ld	b, a
  1932  01b8  21c200            	ld	hl,_pos + 2
  1933  01bb  4e                	ld	c, (hl)
  1934  01bc  3e0b              	ld	a,0x0b
  1935  01be  91                	sub	a, c
  1936  01bf  dd6e04            	ld	l,(ix+4)
  1937  01c2  dd6605            	ld	h,(ix+5)
  1938  01c5  e5                	push	hl
  1939  01c6  26ef              	ld	h,0xef
  1940  01c8  e5                	push	hl
  1941  01c9  33                	inc	sp
  1942  01ca  d5                	push	de
  1943  01cb  c5                	push	bc
  1944  01cc  33                	inc	sp
  1945  01cd  f5                	push	af
  1946  01ce  33                	inc	sp
  1947  01cf  cd0000            	call	_layer2_draw_text
  1948  01d2  f1                	pop	af
  1949  01d3  f1                	pop	af
  1950  01d4  33                	inc	sp
  1951  01d5  21003d            	ld	hl,0x3d00
  1952  01d8  e3                	ex	(sp),hl
  1953  01d9  cd0000            	call	_layer2_set_font
  1954  01dc  f1                	pop	af
  1955  01dd  11b502            	ld	de,___str_10
  1956  01e0  3ac500            	ld	a, (_pos + 5)
  1957  01e3  c60c              	add	a,0x0c
  1958  01e5  47                	ld	b, a
  1959  01e6  3ac400            	ld	a, (_pos + 4)
  1960  01e9  c613              	add	a,0x13
  1961  01eb  dd6e04            	ld	l,(ix+4)
  1962  01ee  dd6605            	ld	h,(ix+5)
  1963  01f1  e5                	push	hl
  1964  01f2  26ef              	ld	h,0xef
  1965  01f4  e5                	push	hl
  1966  01f5  33                	inc	sp
  1967  01f6  d5                	push	de
  1968  01f7  c5                	push	bc
  1969  01f8  33                	inc	sp
  1970  01f9  f5                	push	af
  1971  01fa  33                	inc	sp
  1972  01fb  cd0000            	call	_layer2_draw_text
  1973  01fe  f1                	pop	af
  1974  01ff  f1                	pop	af
  1975  0200  f1                	pop	af
  1976  0201  33                	inc	sp
  1977  0202  11b502            	ld	de,___str_10
  1978  0205  21c700            	ld	hl,_pos + 7
  1979  0208  4e                	ld	c, (hl)
  1980  0209  3e1d              	ld	a,0x1d
  1981  020b  91                	sub	a, c
  1982  020c  47                	ld	b, a
  1983  020d  21c600            	ld	hl,_pos + 6
  1984  0210  4e                	ld	c, (hl)
  1985  0211  3e03              	ld	a,0x03
  1986  0213  91                	sub	a, c
  1987  0214  dd6e04            	ld	l,(ix+4)
  1988  0217  dd6605            	ld	h,(ix+5)
  1989  021a  e5                	push	hl
  1990  021b  26ef              	ld	h,0xef
  1991  021d  e5                	push	hl
  1992  021e  33                	inc	sp
  1993  021f  d5                	push	de
  1994  0220  c5                	push	bc
  1995  0221  33                	inc	sp
  1996  0222  f5                	push	af
  1997  0223  33                	inc	sp
  1998  0224  cd0000            	call	_layer2_draw_text
  1999  0227  f1                	pop	af
  2000  0228  f1                	pop	af
  2001  0229  f1                	pop	af
  2002  022a  33                	inc	sp
  2003  022b  11b502            	ld	de,___str_10
  2004  022e  3ac900            	ld	a, (_pos + 9)
  2005  0231  c61d              	add	a,0x1d
  2006  0233  47                	ld	b, a
  2007  0234  3ac800            	ld	a, (_pos + 8)
  2008  0237  c60b              	add	a,0x0b
  2009  0239  dd6e04            	ld	l,(ix+4)
  2010  023c  dd6605            	ld	h,(ix+5)
  2011  023f  e5                	push	hl
  2012  0240  26ef              	ld	h,0xef
  2013  0242  e5                	push	hl
  2014  0243  33                	inc	sp
  2015  0244  d5                	push	de
  2016  0245  c5                	push	bc
  2017  0246  33                	inc	sp
  2018  0247  f5                	push	af
  2019  0248  33                	inc	sp
  2020  0249  cd0000            	call	_layer2_draw_text
  2021  024c  f1                	pop	af
  2022  024d  f1                	pop	af
  2023  024e  f1                	pop	af
  2024  024f  33                	inc	sp
  2025  0250  11b502            	ld	de,___str_10
  2026  0253  21cb00            	ld	hl,_pos + 11
  2027  0256  4e                	ld	c, (hl)
  2028  0257  3e1d              	ld	a,0x1d
  2029  0259  91                	sub	a, c
  2030  025a  47                	ld	b, a
  2031  025b  21ca00            	ld	hl,_pos + 10
  2032  025e  4e                	ld	c, (hl)
  2033  025f  3e13              	ld	a,0x13
  2034  0261  91                	sub	a, c
  2035  0262  dd6e04            	ld	l,(ix+4)
  2036  0265  dd6605            	ld	h,(ix+5)
  2037  0268  e5                	push	hl
  2038  0269  26ef              	ld	h,0xef
  2039  026b  e5                	push	hl
  2040  026c  33                	inc	sp
  2041  026d  d5                	push	de
  2042  026e  c5                	push	bc
  2043  026f  33                	inc	sp
  2044  0270  f5                	push	af
  2045  0271  33                	inc	sp
  2046  0272  cd0000            	call	_layer2_draw_text
  2047  0275  f1                	pop	af
  2048  0276  f1                	pop	af
  2049  0277  f1                	pop	af
  2050  0278  33                	inc	sp
  2051  0279  11b502            	ld	de,___str_10
  2052  027c  3acd00            	ld	a, (_pos + 13)
  2053  027f  c620              	add	a,0x20
  2054  0281  47                	ld	b, a
  2055  0282  3acc00            	ld	a, (_pos + 12)
  2056  0285  c618              	add	a,0x18
  2057  0287  dd6e04            	ld	l,(ix+4)
  2058  028a  dd6605            	ld	h,(ix+5)
  2059  028d  e5                	push	hl
  2060  028e  26ef              	ld	h,0xef
  2061  0290  e5                	push	hl
  2062  0291  33                	inc	sp
  2063  0292  d5                	push	de
  2064  0293  c5                	push	bc
  2065  0294  33                	inc	sp
  2066  0295  f5                	push	af
  2067  0296  33                	inc	sp
  2068  0297  cd0000            	call	_layer2_draw_text
  2069  029a  f1                	pop	af
  2070  029b  f1                	pop	af
  2071  029c  f1                	pop	af
  2072  029d  33                	inc	sp
  2073  029e  dd4e04            	ld	c,(ix+4)
  2074  02a1  dd4605            	ld	b,(ix+5)
  2075  02a4  dd7e05            	ld	a,(ix+5)
  2076  02a7  ddb604            	or	a,(ix+4)
  2077  02aa  2809              	jr	Z,l_test_draw_text_00105
  2078  02ac  0a                	ld	a, (bc)
  2079  02ad  3d                	dec	a
  2080  02ae  2005              	jr	NZ,l_test_draw_text_00105
  2081  02b0  cd0000            	call	_layer2_flip_main_shadow_screen
  2082  02b3  1812              	jr	l_test_draw_text_00108
  2083                          l_test_draw_text_00105:
  2084  02b5  dd7e05            	ld	a,(ix+5)
  2085  02b8  ddb604            	or	a,(ix+4)
  2086  02bb  280a              	jr	Z,l_test_draw_text_00108
  2087  02bd  0a                	ld	a, (bc)
  2088  02be  d602              	sub	a,0x02
  2089  02c0  2005              	jr	NZ,l_test_draw_text_00108
  2090  02c2  c5                	push	bc
  2091  02c3  cd0000            	call	_layer2_copy_off_screen
  2092  02c6  f1                	pop	af
  2093                          l_test_draw_text_00108:
  2094  02c7  dde1              	pop	ix
  2095  02c9  c9                	ret
  2096                          	SECTION rodata_compiler
  2097                          ___str_10:
  2098  02b5  48656c6c6f        	DEFM "Hello"
  2099  02ba  00                	DEFB 0x00
  2100                          	SECTION code_compiler
  2101                          ;	---------------------------------
  2102                          ; Function test_blit_transparent
  2103                          ; ---------------------------------
  2104                          _test_blit_transparent:
  2105  02ca  dde5              	push	ix
  2106  02cc  dd210000          	ld	ix,0
  2107  02d0  dd39              	add	ix,sp
  2108  02d2  110000            	ld	de,_sprite+0
  2109  02d5  3acf00            	ld	a, (_pos + 15)
  2110  02d8  c618              	add	a,0x18
  2111  02da  47                	ld	b, a
  2112  02db  3ace00            	ld	a, (_pos + 14)
  2113  02de  c678              	add	a,0x78
  2114  02e0  dd6e04            	ld	l,(ix+4)
  2115  02e3  dd6605            	ld	h,(ix+5)
  2116  02e6  e5                	push	hl
  2117  02e7  260c              	ld	h,0x0c
  2118  02e9  e5                	push	hl
  2119  02ea  33                	inc	sp
  2120  02eb  210c00            	ld	hl,0x000c
  2121  02ee  e5                	push	hl
  2122  02ef  d5                	push	de
  2123  02f0  c5                	push	bc
  2124  02f1  33                	inc	sp
  2125  02f2  f5                	push	af
  2126  02f3  33                	inc	sp
  2127  02f4  cd0000            	call	_layer2_blit_transparent
  2128  02f7  210900            	ld	hl,9
  2129  02fa  39                	add	hl, sp
  2130  02fb  f9                	ld	sp, hl
  2131  02fc  dd4e04            	ld	c,(ix+4)
  2132  02ff  dd4605            	ld	b,(ix+5)
  2133  0302  dd7e05            	ld	a,(ix+5)
  2134  0305  ddb604            	or	a,(ix+4)
  2135  0308  2809              	jr	Z,l_test_blit_transparent_00105
  2136  030a  0a                	ld	a, (bc)
  2137  030b  3d                	dec	a
  2138  030c  2005              	jr	NZ,l_test_blit_transparent_00105
  2139  030e  cd0000            	call	_layer2_flip_main_shadow_screen
  2140  0311  1812              	jr	l_test_blit_transparent_00108
  2141                          l_test_blit_transparent_00105:
  2142  0313  dd7e05            	ld	a,(ix+5)
  2143  0316  ddb604            	or	a,(ix+4)
  2144  0319  280a              	jr	Z,l_test_blit_transparent_00108
  2145  031b  0a                	ld	a, (bc)
  2146  031c  d602              	sub	a,0x02
  2147  031e  2005              	jr	NZ,l_test_blit_transparent_00108
  2148  0320  c5                	push	bc
  2149  0321  cd0000            	call	_layer2_copy_off_screen
  2150  0324  f1                	pop	af
  2151                          l_test_blit_transparent_00108:
  2152  0325  dde1              	pop	ix
  2153  0327  c9                	ret
  2154                          ;	---------------------------------
  2155                          ; Function DrawGame
  2156                          ; ---------------------------------
  2157                          _DrawGame:
  2158  0328  01c000            	ld	bc,_pos+0
  2159  032b  110000            	ld	de,0x0000
  2160                          l_DrawGame_00103:
  2161  032e  7b                	ld	a, e
  2162  032f  d640              	sub	a,0x40
  2163  0331  7a                	ld	a, d
  2164  0332  17                	rla
  2165  0333  3f                	ccf
  2166  0334  1f                	rra
  2167  0335  de80              	sbc	a,0x80
  2168  0337  300a              	jr	NC,l_DrawGame_00101
  2169  0339  6b                	ld	l, e
  2170  033a  62                	ld	h, d
  2171  033b  29                	add	hl, hl
  2172  033c  09                	add	hl, bc
  2173  033d  34                	inc	(hl)
  2174  033e  23                	inc	hl
  2175  033f  34                	inc	(hl)
  2176  0340  13                	inc	de
  2177  0341  18eb              	jr	l_DrawGame_00103
  2178                          l_DrawGame_00101:
  2179  0343  210600            	ld	hl,_off_screen
  2180  0346  e5                	push	hl
  2181  0347  cdca02            	call	_test_blit_transparent
  2182  034a  210600            	ld	hl,_off_screen
  2183  034d  e3                	ex	(sp),hl
  2184  034e  cd3901            	call	_drawCloud
  2185  0351  f1                	pop	af
  2186  0352  c9                	ret
  2187                          ;	---------------------------------
  2188                          ; Function main
  2189                          ; ---------------------------------
  2190                          _main:
  2191  0353  cd4c00            	call	_init_hardware
  2192  0356  cd7100            	call	_init_isr
  2193  0359  cd9400            	call	_create_start_screen
  2194  035c  cd0000            	call	_in_wait_key
  2195  035f  cd1401            	call	_init_tests
  2196  0362  210600            	ld	hl,_off_screen
  2197  0365  e5                	push	hl
  2198  0366  3eef              	ld	a,0xef
  2199  0368  f5                	push	af
  2200  0369  33                	inc	sp
  2201  036a  21bb02            	ld	hl,___str_11
  2202  036d  e5                	push	hl
  2203  036e  11030c            	ld	de,0x0c03
  2204  0371  d5                	push	de
  2205  0372  cd0000            	call	_layer2_draw_text
  2206  0375  f1                	pop	af
  2207  0376  f1                	pop	af
  2208  0377  f1                	pop	af
  2209  0378  33                	inc	sp
  2210                          l_main_00102:
  2211  0379  cd2803            	call	_DrawGame
  2212  037c  18fb              	jr	l_main_00102
  2213                          	SECTION rodata_compiler
  2214                          ___str_11:
  2215  02bb  48656c6c6f        	DEFM "Hello"
  2216  02c0  00                	DEFB 0x00
  2217                          	SECTION data_compiler
  2218                          _test_number:
  2219  0000  00                	DEFB +0x00
  2220                          _shadow_screen:
  2221  0001  01                	DEFB +0x01
  2222  0002  00                	DEFB +0x00
  2223  0003  00                	DEFB +0x00
  2224  0004  00                	DEFB +0x00
  2225  0005  00                	DEFB +0x00
  2226                          _off_screen:
  2227  0006  02                	DEFB +0x02
  2228  0007  00                	DEFB +0x00
  2229  0008  01                	DEFB +0x01
  2230  0009  03                	DEFB +0x03
  2231  000a  00                	DEFB +0x00
  2232                          	SECTION IGNORE
  2233                          
